Archive member included to satisfy reference by file (symbol)

/yuneta/development/outputs/lib/libtimeranger2.a(fs_watcher.c.o)
                              CMakeFiles/fs_watcher.dir/src/main_fs_watcher.c.o (fs_create_watcher_event)
/yuneta/development/outputs/lib/libyev_loop.a(yev_loop.c.o)
                              CMakeFiles/fs_watcher.dir/src/main_fs_watcher.c.o (yev_loop_create)
/yuneta/development/outputs/lib/libyunetas-gobj.a(gobj.c.o)
                              CMakeFiles/fs_watcher.dir/src/main_fs_watcher.c.o (gobj_start_up)
/yuneta/development/outputs/lib/libyunetas-gobj.a(gbmem.c.o)
                              CMakeFiles/fs_watcher.dir/src/main_fs_watcher.c.o (gbmem_get_allocators)
/yuneta/development/outputs/lib/libyunetas-gobj.a(gbuffer.c.o)
                              /yuneta/development/outputs/lib/libtimeranger2.a(fs_watcher.c.o) (gbuffer_create)
/yuneta/development/outputs/lib/libyunetas-gobj.a(glogger.c.o)
                              /yuneta/development/outputs/lib/libyunetas-gobj.a(gobj.c.o) (glog_init)
/yuneta/development/outputs/lib/libyunetas-gobj.a(log_udp_handler.c.o)
                              /yuneta/development/outputs/lib/libyunetas-gobj.a(glogger.c.o) (udpc_close)
/yuneta/development/outputs/lib/libyunetas-gobj.a(helpers.c.o)
                              /yuneta/development/outputs/lib/libyunetas-gobj.a(gbuffer.c.o) (newfile)
/yuneta/development/outputs/lib/libyunetas-gobj.a(kwid.c.o)
                              /yuneta/development/outputs/lib/libyunetas-gobj.a(gobj.c.o) (kw_add_binary_type)
/yuneta/development/outputs/lib/libyunetas-gobj.a(command_parser.c.o)
                              /yuneta/development/outputs/lib/libyunetas-gobj.a(gobj.c.o) (build_command_response)
/yuneta/development/outputs/lib/libyunetas-gobj.a(stats_parser.c.o)
                              /yuneta/development/outputs/lib/libyunetas-gobj.a(gobj.c.o) (build_stats_response)
/yuneta/development/outputs/lib/libyunetas-gobj.a(json_config.c.o)
                              /yuneta/development/outputs/lib/libyunetas-gobj.a(gobj.c.o) (json_config)
/yuneta/development/outputs/lib/libyunetas-gobj.a(json_replace_vars.c.o)
                              /yuneta/development/outputs/lib/libyunetas-gobj.a(gobj.c.o) (json_replace_var)
/yuneta/development/outputs/lib/libyunetas-gobj.a(rotatory.c.o)
                              /yuneta/development/outputs/lib/libyunetas-gobj.a(glogger.c.o) (rotatory_close)
/yuneta/development/outputs/lib/libyunetas-gobj.a(g_ev_kernel.c.o)
                              /yuneta/development/outputs/lib/libyunetas-gobj.a(gobj.c.o) (EV_STATE_CHANGED)
/yuneta/development/outputs/lib/libyunetas-gobj.a(00_http_parser.c.o)
                              /yuneta/development/outputs/lib/libyunetas-gobj.a(helpers.c.o) (http_parser_url_init)
/yuneta/development/outputs/lib/libyunetas-gobj.a(dl_list.c.o)
                              /yuneta/development/outputs/lib/libyunetas-gobj.a(gobj.c.o) (dl_init)
/yuneta/development/outputs_ext/lib/liburing.a(setup.ol)
                              /yuneta/development/outputs/lib/libyev_loop.a(yev_loop.c.o) (io_uring_queue_init_params)
/yuneta/development/outputs_ext/lib/liburing.a(queue.ol)
                              /yuneta/development/outputs/lib/libyev_loop.a(yev_loop.c.o) (__io_uring_get_cqe)
/yuneta/development/outputs_ext/lib/liburing.a(register.ol)
                              /yuneta/development/outputs_ext/lib/liburing.a(setup.ol) (io_uring_register_probe)
/yuneta/development/outputs_ext/lib/liburing.a(nolibc.ol)
                              /yuneta/development/outputs_ext/lib/liburing.a(setup.ol) (__uring_memset)
/yuneta/development/outputs_ext/lib/libjansson.a(dump.c.o)
                              /yuneta/development/outputs/lib/libyunetas-gobj.a(gbuffer.c.o) (json_dump_callback)
/yuneta/development/outputs_ext/lib/libjansson.a(hashtable.c.o)
                              /yuneta/development/outputs_ext/lib/libjansson.a(dump.c.o) (hashtable_init)
/yuneta/development/outputs_ext/lib/libjansson.a(hashtable_seed.c.o)
                              /yuneta/development/outputs_ext/lib/libjansson.a(hashtable.c.o) (hashtable_seed)
/yuneta/development/outputs_ext/lib/libjansson.a(load.c.o)
                              /yuneta/development/outputs/lib/libyunetas-gobj.a(helpers.c.o) (json_loads)
/yuneta/development/outputs_ext/lib/libjansson.a(memory.c.o)
                              /yuneta/development/outputs_ext/lib/libjansson.a(dump.c.o) (jsonp_malloc)
/yuneta/development/outputs_ext/lib/libjansson.a(pack_unpack.c.o)
                              /yuneta/development/outputs/lib/libyunetas-gobj.a(gobj.c.o) (json_pack)
/yuneta/development/outputs_ext/lib/libjansson.a(strbuffer.c.o)
                              /yuneta/development/outputs_ext/lib/libjansson.a(dump.c.o) (strbuffer_init)
/yuneta/development/outputs_ext/lib/libjansson.a(strconv.c.o)
                              /yuneta/development/outputs_ext/lib/libjansson.a(load.c.o) (jsonp_strtod)
/yuneta/development/outputs_ext/lib/libjansson.a(utf.c.o)
                              /yuneta/development/outputs_ext/lib/libjansson.a(load.c.o) (utf8_encode)
/yuneta/development/outputs_ext/lib/libjansson.a(value.c.o)
                              /yuneta/development/outputs/lib/libtimeranger2.a(fs_watcher.c.o) (json_object)
/yuneta/development/outputs_ext/lib/libjansson.a(dtoa.c.o)
                              /yuneta/development/outputs_ext/lib/libjansson.a(strconv.c.o) (dtoa_r)
/yuneta/development/outputs_ext/lib/libjansson.a(error.c.o)
                              /yuneta/development/outputs_ext/lib/libjansson.a(pack_unpack.c.o) (jsonp_error_set_source)
/yuneta/development/outputs_ext/lib/libpcre2-8.a(pcre2_compile.c.o)
                              /yuneta/development/outputs/lib/libyunetas-gobj.a(json_replace_vars.c.o) (pcre2_code_free_8)
/yuneta/development/outputs_ext/lib/libpcre2-8.a(pcre2_compile_class.c.o)
                              /yuneta/development/outputs_ext/lib/libpcre2-8.a(pcre2_compile.c.o) (_pcre2_compile_class_not_nested_8)
/yuneta/development/outputs_ext/lib/libpcre2-8.a(pcre2_context.c.o)
                              /yuneta/development/outputs_ext/lib/libpcre2-8.a(pcre2_compile.c.o) (_pcre2_default_compile_context_8)
/yuneta/development/outputs_ext/lib/libpcre2-8.a(pcre2_find_bracket.c.o)
                              /yuneta/development/outputs_ext/lib/libpcre2-8.a(pcre2_compile.c.o) (_pcre2_find_bracket_8)
/yuneta/development/outputs_ext/lib/libpcre2-8.a(pcre2_jit_compile.c.o)
                              /yuneta/development/outputs_ext/lib/libpcre2-8.a(pcre2_compile.c.o) (_pcre2_jit_free_8)
/yuneta/development/outputs_ext/lib/libpcre2-8.a(pcre2_match.c.o)
                              /yuneta/development/outputs/lib/libyunetas-gobj.a(json_replace_vars.c.o) (pcre2_match_8)
/yuneta/development/outputs_ext/lib/libpcre2-8.a(pcre2_match_data.c.o)
                              /yuneta/development/outputs/lib/libyunetas-gobj.a(json_replace_vars.c.o) (pcre2_match_data_create_from_pattern_8)
/yuneta/development/outputs_ext/lib/libpcre2-8.a(pcre2_newline.c.o)
                              /yuneta/development/outputs_ext/lib/libpcre2-8.a(pcre2_compile.c.o) (_pcre2_is_newline_8)
/yuneta/development/outputs_ext/lib/libpcre2-8.a(pcre2_ord2utf.c.o)
                              /yuneta/development/outputs_ext/lib/libpcre2-8.a(pcre2_compile.c.o) (_pcre2_ord2utf_8)
/yuneta/development/outputs_ext/lib/libpcre2-8.a(pcre2_script_run.c.o)
                              /yuneta/development/outputs_ext/lib/libpcre2-8.a(pcre2_jit_compile.c.o) (_pcre2_script_run_8)
/yuneta/development/outputs_ext/lib/libpcre2-8.a(pcre2_string_utils.c.o)
                              /yuneta/development/outputs_ext/lib/libpcre2-8.a(pcre2_jit_compile.c.o) (_pcre2_strcmp_8)
/yuneta/development/outputs_ext/lib/libpcre2-8.a(pcre2_study.c.o)
                              /yuneta/development/outputs_ext/lib/libpcre2-8.a(pcre2_compile.c.o) (_pcre2_study_8)
/yuneta/development/outputs_ext/lib/libpcre2-8.a(pcre2_tables.c.o)
                              /yuneta/development/outputs_ext/lib/libpcre2-8.a(pcre2_compile.c.o) (_pcre2_utt_size_8)
/yuneta/development/outputs_ext/lib/libpcre2-8.a(pcre2_ucd.c.o)
                              /yuneta/development/outputs_ext/lib/libpcre2-8.a(pcre2_compile.c.o) (_pcre2_ucd_stage2_8)
/yuneta/development/outputs_ext/lib/libpcre2-8.a(pcre2_valid_utf.c.o)
                              /yuneta/development/outputs_ext/lib/libpcre2-8.a(pcre2_compile.c.o) (_pcre2_valid_utf_8)
/yuneta/development/outputs_ext/lib/libpcre2-8.a(pcre2_xclass.c.o)
                              /yuneta/development/outputs_ext/lib/libpcre2-8.a(pcre2_match.c.o) (_pcre2_xclass_8)
/yuneta/development/outputs_ext/lib/libpcre2-8.a(pcre2_auto_possess.c.o)
                              /yuneta/development/outputs_ext/lib/libpcre2-8.a(pcre2_compile.c.o) (_pcre2_auto_possessify_8)
/yuneta/development/outputs_ext/lib/libpcre2-8.a(pcre2_chartables.c.o)
                              /yuneta/development/outputs_ext/lib/libpcre2-8.a(pcre2_compile.c.o) (_pcre2_default_tables_8)
/yuneta/development/outputs_ext/lib/libpcre2-8.a(pcre2_chkdint.c.o)
                              /yuneta/development/outputs_ext/lib/libpcre2-8.a(pcre2_compile.c.o) (_pcre2_ckd_smul)
/yuneta/development/outputs_ext/lib/libpcre2-8.a(pcre2_extuni.c.o)
                              /yuneta/development/outputs_ext/lib/libpcre2-8.a(pcre2_match.c.o) (_pcre2_extuni_8)
/yuneta/development/outputs_ext/lib/libbacktrace.a(state.o)
                              /yuneta/development/outputs/lib/libyunetas-gobj.a(helpers.c.o) (backtrace_create_state)
/yuneta/development/outputs_ext/lib/libbacktrace.a(backtrace.o)
                              /yuneta/development/outputs/lib/libyunetas-gobj.a(helpers.c.o) (backtrace_full)
/yuneta/development/outputs_ext/lib/libbacktrace.a(mmap.o)
                              /yuneta/development/outputs_ext/lib/libbacktrace.a(backtrace.o) (backtrace_free)
/yuneta/development/outputs_ext/lib/libbacktrace.a(fileline.o)
                              /yuneta/development/outputs_ext/lib/libbacktrace.a(backtrace.o) (backtrace_pcinfo)
/yuneta/development/outputs_ext/lib/libbacktrace.a(posix.o)
                              /yuneta/development/outputs_ext/lib/libbacktrace.a(fileline.o) (backtrace_open)
/yuneta/development/outputs_ext/lib/libbacktrace.a(elf.o)
                              /yuneta/development/outputs_ext/lib/libbacktrace.a(fileline.o) (backtrace_initialize)
/yuneta/development/outputs_ext/lib/libbacktrace.a(mmapio.o)
                              /yuneta/development/outputs_ext/lib/libbacktrace.a(elf.o) (backtrace_get_view)
/yuneta/development/outputs_ext/lib/libbacktrace.a(dwarf.o)
                              /yuneta/development/outputs_ext/lib/libbacktrace.a(elf.o) (backtrace_dwarf_add)
/yuneta/development/outputs_ext/lib/libbacktrace.a(sort.o)
                              /yuneta/development/outputs_ext/lib/libbacktrace.a(elf.o) (backtrace_qsort)
/usr/lib/gcc/x86_64-linux-gnu/13/libgcc_eh.a(unwind-dw2.o)
                              /yuneta/development/outputs_ext/lib/libbacktrace.a(backtrace.o) (_Unwind_GetIPInfo)
/usr/lib/gcc/x86_64-linux-gnu/13/libgcc_eh.a(unwind-dw2-fde-dip.o)
                              /usr/lib/gcc/x86_64-linux-gnu/13/libgcc_eh.a(unwind-dw2.o) (_Unwind_Find_FDE)

Merging program properties

Removed property 0xc0000002 to merge /usr/lib/gcc/x86_64-linux-gnu/13/crtbeginS.o (0x3) and /usr/local/musl/lib/Scrt1.o (not found)
Removed property 0xc0000002 to merge /usr/lib/gcc/x86_64-linux-gnu/13/crtbeginS.o (not found) and CMakeFiles/fs_watcher.dir/src/main_fs_watcher.c.o (0x3)
Removed property 0xc0000002 to merge /usr/lib/gcc/x86_64-linux-gnu/13/crtbeginS.o (not found) and /yuneta/development/outputs/lib/libtimeranger2.a(fs_watcher.c.o) (0x3)
Removed property 0xc0000002 to merge /usr/lib/gcc/x86_64-linux-gnu/13/crtbeginS.o (not found) and /yuneta/development/outputs/lib/libyev_loop.a(yev_loop.c.o) (0x3)
Removed property 0xc0000002 to merge /usr/lib/gcc/x86_64-linux-gnu/13/crtbeginS.o (not found) and /yuneta/development/outputs/lib/libyunetas-gobj.a(gobj.c.o) (0x3)
Removed property 0xc0000002 to merge /usr/lib/gcc/x86_64-linux-gnu/13/crtbeginS.o (not found) and /yuneta/development/outputs/lib/libyunetas-gobj.a(gbmem.c.o) (0x3)
Removed property 0xc0000002 to merge /usr/lib/gcc/x86_64-linux-gnu/13/crtbeginS.o (not found) and /yuneta/development/outputs/lib/libyunetas-gobj.a(gbuffer.c.o) (0x3)
Removed property 0xc0000002 to merge /usr/lib/gcc/x86_64-linux-gnu/13/crtbeginS.o (not found) and /yuneta/development/outputs/lib/libyunetas-gobj.a(glogger.c.o) (0x3)
Removed property 0xc0000002 to merge /usr/lib/gcc/x86_64-linux-gnu/13/crtbeginS.o (not found) and /yuneta/development/outputs/lib/libyunetas-gobj.a(log_udp_handler.c.o) (0x3)
Removed property 0xc0000002 to merge /usr/lib/gcc/x86_64-linux-gnu/13/crtbeginS.o (not found) and /yuneta/development/outputs/lib/libyunetas-gobj.a(helpers.c.o) (0x3)
Removed property 0xc0000002 to merge /usr/lib/gcc/x86_64-linux-gnu/13/crtbeginS.o (not found) and /yuneta/development/outputs/lib/libyunetas-gobj.a(kwid.c.o) (0x3)
Removed property 0xc0000002 to merge /usr/lib/gcc/x86_64-linux-gnu/13/crtbeginS.o (not found) and /yuneta/development/outputs/lib/libyunetas-gobj.a(command_parser.c.o) (0x3)
Removed property 0xc0000002 to merge /usr/lib/gcc/x86_64-linux-gnu/13/crtbeginS.o (not found) and /yuneta/development/outputs/lib/libyunetas-gobj.a(stats_parser.c.o) (0x3)
Removed property 0xc0000002 to merge /usr/lib/gcc/x86_64-linux-gnu/13/crtbeginS.o (not found) and /yuneta/development/outputs/lib/libyunetas-gobj.a(json_config.c.o) (0x3)
Removed property 0xc0000002 to merge /usr/lib/gcc/x86_64-linux-gnu/13/crtbeginS.o (not found) and /yuneta/development/outputs/lib/libyunetas-gobj.a(json_replace_vars.c.o) (0x3)
Removed property 0xc0000002 to merge /usr/lib/gcc/x86_64-linux-gnu/13/crtbeginS.o (not found) and /yuneta/development/outputs/lib/libyunetas-gobj.a(rotatory.c.o) (0x3)
Removed property 0xc0000002 to merge /usr/lib/gcc/x86_64-linux-gnu/13/crtbeginS.o (not found) and /yuneta/development/outputs/lib/libyunetas-gobj.a(g_ev_kernel.c.o) (0x3)
Removed property 0xc0000002 to merge /usr/lib/gcc/x86_64-linux-gnu/13/crtbeginS.o (not found) and /yuneta/development/outputs/lib/libyunetas-gobj.a(00_http_parser.c.o) (0x3)
Removed property 0xc0000002 to merge /usr/lib/gcc/x86_64-linux-gnu/13/crtbeginS.o (not found) and /yuneta/development/outputs/lib/libyunetas-gobj.a(dl_list.c.o) (0x3)
Removed property 0xc0000002 to merge /usr/lib/gcc/x86_64-linux-gnu/13/crtbeginS.o (not found) and /yuneta/development/outputs_ext/lib/liburing.a(setup.ol) (0x3)
Removed property 0xc0000002 to merge /usr/lib/gcc/x86_64-linux-gnu/13/crtbeginS.o (not found) and /yuneta/development/outputs_ext/lib/liburing.a(queue.ol) (0x3)
Removed property 0xc0000002 to merge /usr/lib/gcc/x86_64-linux-gnu/13/crtbeginS.o (not found) and /yuneta/development/outputs_ext/lib/liburing.a(register.ol) (0x3)
Removed property 0xc0000002 to merge /usr/lib/gcc/x86_64-linux-gnu/13/crtbeginS.o (not found) and /yuneta/development/outputs_ext/lib/liburing.a(nolibc.ol) (0x3)
Removed property 0xc0000002 to merge /usr/lib/gcc/x86_64-linux-gnu/13/crtbeginS.o (not found) and /yuneta/development/outputs_ext/lib/libjansson.a(dump.c.o) (0x3)
Removed property 0xc0000002 to merge /usr/lib/gcc/x86_64-linux-gnu/13/crtbeginS.o (not found) and /yuneta/development/outputs_ext/lib/libjansson.a(hashtable.c.o) (0x3)
Removed property 0xc0000002 to merge /usr/lib/gcc/x86_64-linux-gnu/13/crtbeginS.o (not found) and /yuneta/development/outputs_ext/lib/libjansson.a(hashtable_seed.c.o) (0x3)
Removed property 0xc0000002 to merge /usr/lib/gcc/x86_64-linux-gnu/13/crtbeginS.o (not found) and /yuneta/development/outputs_ext/lib/libjansson.a(load.c.o) (0x3)
Removed property 0xc0000002 to merge /usr/lib/gcc/x86_64-linux-gnu/13/crtbeginS.o (not found) and /yuneta/development/outputs_ext/lib/libjansson.a(memory.c.o) (0x3)
Removed property 0xc0000002 to merge /usr/lib/gcc/x86_64-linux-gnu/13/crtbeginS.o (not found) and /yuneta/development/outputs_ext/lib/libjansson.a(pack_unpack.c.o) (0x3)
Removed property 0xc0000002 to merge /usr/lib/gcc/x86_64-linux-gnu/13/crtbeginS.o (not found) and /yuneta/development/outputs_ext/lib/libjansson.a(strbuffer.c.o) (0x3)
Removed property 0xc0000002 to merge /usr/lib/gcc/x86_64-linux-gnu/13/crtbeginS.o (not found) and /yuneta/development/outputs_ext/lib/libjansson.a(strconv.c.o) (0x3)
Removed property 0xc0000002 to merge /usr/lib/gcc/x86_64-linux-gnu/13/crtbeginS.o (not found) and /yuneta/development/outputs_ext/lib/libjansson.a(utf.c.o) (0x3)
Removed property 0xc0000002 to merge /usr/lib/gcc/x86_64-linux-gnu/13/crtbeginS.o (not found) and /yuneta/development/outputs_ext/lib/libjansson.a(value.c.o) (0x3)
Removed property 0xc0000002 to merge /usr/lib/gcc/x86_64-linux-gnu/13/crtbeginS.o (not found) and /yuneta/development/outputs_ext/lib/libjansson.a(dtoa.c.o) (0x3)
Removed property 0xc0000002 to merge /usr/lib/gcc/x86_64-linux-gnu/13/crtbeginS.o (not found) and /yuneta/development/outputs_ext/lib/libjansson.a(error.c.o) (0x3)
Removed property 0xc0000002 to merge /usr/lib/gcc/x86_64-linux-gnu/13/crtbeginS.o (not found) and /yuneta/development/outputs_ext/lib/libpcre2-8.a(pcre2_compile.c.o) (0x3)
Removed property 0xc0000002 to merge /usr/lib/gcc/x86_64-linux-gnu/13/crtbeginS.o (not found) and /yuneta/development/outputs_ext/lib/libpcre2-8.a(pcre2_compile_class.c.o) (0x3)
Removed property 0xc0000002 to merge /usr/lib/gcc/x86_64-linux-gnu/13/crtbeginS.o (not found) and /yuneta/development/outputs_ext/lib/libpcre2-8.a(pcre2_context.c.o) (0x3)
Removed property 0xc0000002 to merge /usr/lib/gcc/x86_64-linux-gnu/13/crtbeginS.o (not found) and /yuneta/development/outputs_ext/lib/libpcre2-8.a(pcre2_find_bracket.c.o) (0x3)
Removed property 0xc0000002 to merge /usr/lib/gcc/x86_64-linux-gnu/13/crtbeginS.o (not found) and /yuneta/development/outputs_ext/lib/libpcre2-8.a(pcre2_jit_compile.c.o) (0x3)
Removed property 0xc0000002 to merge /usr/lib/gcc/x86_64-linux-gnu/13/crtbeginS.o (not found) and /yuneta/development/outputs_ext/lib/libpcre2-8.a(pcre2_match.c.o) (0x3)
Removed property 0xc0000002 to merge /usr/lib/gcc/x86_64-linux-gnu/13/crtbeginS.o (not found) and /yuneta/development/outputs_ext/lib/libpcre2-8.a(pcre2_match_data.c.o) (0x3)
Removed property 0xc0000002 to merge /usr/lib/gcc/x86_64-linux-gnu/13/crtbeginS.o (not found) and /yuneta/development/outputs_ext/lib/libpcre2-8.a(pcre2_newline.c.o) (0x3)
Removed property 0xc0000002 to merge /usr/lib/gcc/x86_64-linux-gnu/13/crtbeginS.o (not found) and /yuneta/development/outputs_ext/lib/libpcre2-8.a(pcre2_ord2utf.c.o) (0x3)
Removed property 0xc0000002 to merge /usr/lib/gcc/x86_64-linux-gnu/13/crtbeginS.o (not found) and /yuneta/development/outputs_ext/lib/libpcre2-8.a(pcre2_script_run.c.o) (0x3)
Removed property 0xc0000002 to merge /usr/lib/gcc/x86_64-linux-gnu/13/crtbeginS.o (not found) and /yuneta/development/outputs_ext/lib/libpcre2-8.a(pcre2_string_utils.c.o) (0x3)
Removed property 0xc0000002 to merge /usr/lib/gcc/x86_64-linux-gnu/13/crtbeginS.o (not found) and /yuneta/development/outputs_ext/lib/libpcre2-8.a(pcre2_study.c.o) (0x3)
Removed property 0xc0000002 to merge /usr/lib/gcc/x86_64-linux-gnu/13/crtbeginS.o (not found) and /yuneta/development/outputs_ext/lib/libpcre2-8.a(pcre2_tables.c.o) (0x3)
Removed property 0xc0000002 to merge /usr/lib/gcc/x86_64-linux-gnu/13/crtbeginS.o (not found) and /yuneta/development/outputs_ext/lib/libpcre2-8.a(pcre2_ucd.c.o) (0x3)
Removed property 0xc0000002 to merge /usr/lib/gcc/x86_64-linux-gnu/13/crtbeginS.o (not found) and /yuneta/development/outputs_ext/lib/libpcre2-8.a(pcre2_valid_utf.c.o) (0x3)
Removed property 0xc0000002 to merge /usr/lib/gcc/x86_64-linux-gnu/13/crtbeginS.o (not found) and /yuneta/development/outputs_ext/lib/libpcre2-8.a(pcre2_xclass.c.o) (0x3)
Removed property 0xc0000002 to merge /usr/lib/gcc/x86_64-linux-gnu/13/crtbeginS.o (not found) and /yuneta/development/outputs_ext/lib/libpcre2-8.a(pcre2_auto_possess.c.o) (0x3)
Removed property 0xc0000002 to merge /usr/lib/gcc/x86_64-linux-gnu/13/crtbeginS.o (not found) and /yuneta/development/outputs_ext/lib/libpcre2-8.a(pcre2_chartables.c.o) (0x3)
Removed property 0xc0000002 to merge /usr/lib/gcc/x86_64-linux-gnu/13/crtbeginS.o (not found) and /yuneta/development/outputs_ext/lib/libpcre2-8.a(pcre2_chkdint.c.o) (0x3)
Removed property 0xc0000002 to merge /usr/lib/gcc/x86_64-linux-gnu/13/crtbeginS.o (not found) and /yuneta/development/outputs_ext/lib/libpcre2-8.a(pcre2_extuni.c.o) (0x3)
Removed property 0xc0000002 to merge /usr/lib/gcc/x86_64-linux-gnu/13/crtbeginS.o (not found) and /yuneta/development/outputs_ext/lib/libbacktrace.a(state.o) (0x3)
Removed property 0xc0000002 to merge /usr/lib/gcc/x86_64-linux-gnu/13/crtbeginS.o (not found) and /yuneta/development/outputs_ext/lib/libbacktrace.a(backtrace.o) (0x3)
Removed property 0xc0000002 to merge /usr/lib/gcc/x86_64-linux-gnu/13/crtbeginS.o (not found) and /yuneta/development/outputs_ext/lib/libbacktrace.a(mmap.o) (0x3)
Removed property 0xc0000002 to merge /usr/lib/gcc/x86_64-linux-gnu/13/crtbeginS.o (not found) and /yuneta/development/outputs_ext/lib/libbacktrace.a(fileline.o) (0x3)
Removed property 0xc0000002 to merge /usr/lib/gcc/x86_64-linux-gnu/13/crtbeginS.o (not found) and /yuneta/development/outputs_ext/lib/libbacktrace.a(posix.o) (0x3)
Removed property 0xc0000002 to merge /usr/lib/gcc/x86_64-linux-gnu/13/crtbeginS.o (not found) and /yuneta/development/outputs_ext/lib/libbacktrace.a(elf.o) (0x3)
Removed property 0xc0000002 to merge /usr/lib/gcc/x86_64-linux-gnu/13/crtbeginS.o (not found) and /yuneta/development/outputs_ext/lib/libbacktrace.a(mmapio.o) (0x3)
Removed property 0xc0000002 to merge /usr/lib/gcc/x86_64-linux-gnu/13/crtbeginS.o (not found) and /yuneta/development/outputs_ext/lib/libbacktrace.a(dwarf.o) (0x3)
Removed property 0xc0000002 to merge /usr/lib/gcc/x86_64-linux-gnu/13/crtbeginS.o (not found) and /yuneta/development/outputs_ext/lib/libbacktrace.a(sort.o) (0x3)
Removed property 0xc0000002 to merge /usr/lib/gcc/x86_64-linux-gnu/13/crtbeginS.o (not found) and /usr/lib/gcc/x86_64-linux-gnu/13/libgcc_eh.a(unwind-dw2.o) (0x3)
Removed property 0xc0000002 to merge /usr/lib/gcc/x86_64-linux-gnu/13/crtbeginS.o (not found) and /usr/lib/gcc/x86_64-linux-gnu/13/libgcc_eh.a(unwind-dw2-fde-dip.o) (0x3)
Removed property 0xc0000002 to merge /usr/lib/gcc/x86_64-linux-gnu/13/crtbeginS.o (not found) and /usr/lib/gcc/x86_64-linux-gnu/13/crtendS.o (0x3)

Discarded input sections

 .note.GNU-stack
                0x0000000000000000        0x0 /usr/local/musl/lib/Scrt1.o
 .llvm_addrsig  0x0000000000000000        0x3 /usr/local/musl/lib/Scrt1.o
 .note.GNU-stack
                0x0000000000000000        0x0 /usr/lib/gcc/x86_64-linux-gnu/13/crtbeginS.o
 .note.gnu.property
                0x0000000000000000       0x20 /usr/lib/gcc/x86_64-linux-gnu/13/crtbeginS.o
 .note.GNU-stack
                0x0000000000000000        0x0 CMakeFiles/fs_watcher.dir/src/main_fs_watcher.c.o
 .note.gnu.property
                0x0000000000000000       0x20 CMakeFiles/fs_watcher.dir/src/main_fs_watcher.c.o
 .note.GNU-stack
                0x0000000000000000        0x0 /yuneta/development/outputs/lib/libtimeranger2.a(fs_watcher.c.o)
 .note.gnu.property
                0x0000000000000000       0x20 /yuneta/development/outputs/lib/libtimeranger2.a(fs_watcher.c.o)
 .note.GNU-stack
                0x0000000000000000        0x0 /yuneta/development/outputs/lib/libyev_loop.a(yev_loop.c.o)
 .note.gnu.property
                0x0000000000000000       0x20 /yuneta/development/outputs/lib/libyev_loop.a(yev_loop.c.o)
 .note.GNU-stack
                0x0000000000000000        0x0 /yuneta/development/outputs/lib/libyunetas-gobj.a(gobj.c.o)
 .note.gnu.property
                0x0000000000000000       0x20 /yuneta/development/outputs/lib/libyunetas-gobj.a(gobj.c.o)
 .note.GNU-stack
                0x0000000000000000        0x0 /yuneta/development/outputs/lib/libyunetas-gobj.a(gbmem.c.o)
 .note.gnu.property
                0x0000000000000000       0x20 /yuneta/development/outputs/lib/libyunetas-gobj.a(gbmem.c.o)
 .note.GNU-stack
                0x0000000000000000        0x0 /yuneta/development/outputs/lib/libyunetas-gobj.a(gbuffer.c.o)
 .note.gnu.property
                0x0000000000000000       0x20 /yuneta/development/outputs/lib/libyunetas-gobj.a(gbuffer.c.o)
 .note.GNU-stack
                0x0000000000000000        0x0 /yuneta/development/outputs/lib/libyunetas-gobj.a(glogger.c.o)
 .note.gnu.property
                0x0000000000000000       0x20 /yuneta/development/outputs/lib/libyunetas-gobj.a(glogger.c.o)
 .note.GNU-stack
                0x0000000000000000        0x0 /yuneta/development/outputs/lib/libyunetas-gobj.a(log_udp_handler.c.o)
 .note.gnu.property
                0x0000000000000000       0x20 /yuneta/development/outputs/lib/libyunetas-gobj.a(log_udp_handler.c.o)
 .note.GNU-stack
                0x0000000000000000        0x0 /yuneta/development/outputs/lib/libyunetas-gobj.a(helpers.c.o)
 .note.gnu.property
                0x0000000000000000       0x20 /yuneta/development/outputs/lib/libyunetas-gobj.a(helpers.c.o)
 .note.GNU-stack
                0x0000000000000000        0x0 /yuneta/development/outputs/lib/libyunetas-gobj.a(kwid.c.o)
 .note.gnu.property
                0x0000000000000000       0x20 /yuneta/development/outputs/lib/libyunetas-gobj.a(kwid.c.o)
 .note.GNU-stack
                0x0000000000000000        0x0 /yuneta/development/outputs/lib/libyunetas-gobj.a(command_parser.c.o)
 .note.gnu.property
                0x0000000000000000       0x20 /yuneta/development/outputs/lib/libyunetas-gobj.a(command_parser.c.o)
 .note.GNU-stack
                0x0000000000000000        0x0 /yuneta/development/outputs/lib/libyunetas-gobj.a(stats_parser.c.o)
 .note.gnu.property
                0x0000000000000000       0x20 /yuneta/development/outputs/lib/libyunetas-gobj.a(stats_parser.c.o)
 .note.GNU-stack
                0x0000000000000000        0x0 /yuneta/development/outputs/lib/libyunetas-gobj.a(json_config.c.o)
 .note.gnu.property
                0x0000000000000000       0x20 /yuneta/development/outputs/lib/libyunetas-gobj.a(json_config.c.o)
 .note.GNU-stack
                0x0000000000000000        0x0 /yuneta/development/outputs/lib/libyunetas-gobj.a(json_replace_vars.c.o)
 .note.gnu.property
                0x0000000000000000       0x20 /yuneta/development/outputs/lib/libyunetas-gobj.a(json_replace_vars.c.o)
 .note.GNU-stack
                0x0000000000000000        0x0 /yuneta/development/outputs/lib/libyunetas-gobj.a(rotatory.c.o)
 .note.gnu.property
                0x0000000000000000       0x20 /yuneta/development/outputs/lib/libyunetas-gobj.a(rotatory.c.o)
 .note.GNU-stack
                0x0000000000000000        0x0 /yuneta/development/outputs/lib/libyunetas-gobj.a(g_ev_kernel.c.o)
 .note.gnu.property
                0x0000000000000000       0x20 /yuneta/development/outputs/lib/libyunetas-gobj.a(g_ev_kernel.c.o)
 .note.GNU-stack
                0x0000000000000000        0x0 /yuneta/development/outputs/lib/libyunetas-gobj.a(00_http_parser.c.o)
 .note.gnu.property
                0x0000000000000000       0x20 /yuneta/development/outputs/lib/libyunetas-gobj.a(00_http_parser.c.o)
 .note.GNU-stack
                0x0000000000000000        0x0 /yuneta/development/outputs/lib/libyunetas-gobj.a(dl_list.c.o)
 .note.gnu.property
                0x0000000000000000       0x20 /yuneta/development/outputs/lib/libyunetas-gobj.a(dl_list.c.o)
 .note.GNU-stack
                0x0000000000000000        0x0 /yuneta/development/outputs_ext/lib/liburing.a(setup.ol)
 .note.gnu.property
                0x0000000000000000       0x20 /yuneta/development/outputs_ext/lib/liburing.a(setup.ol)
 .note.GNU-stack
                0x0000000000000000        0x0 /yuneta/development/outputs_ext/lib/liburing.a(queue.ol)
 .note.gnu.property
                0x0000000000000000       0x20 /yuneta/development/outputs_ext/lib/liburing.a(queue.ol)
 .note.GNU-stack
                0x0000000000000000        0x0 /yuneta/development/outputs_ext/lib/liburing.a(register.ol)
 .note.gnu.property
                0x0000000000000000       0x20 /yuneta/development/outputs_ext/lib/liburing.a(register.ol)
 .note.GNU-stack
                0x0000000000000000        0x0 /yuneta/development/outputs_ext/lib/liburing.a(nolibc.ol)
 .note.gnu.property
                0x0000000000000000       0x20 /yuneta/development/outputs_ext/lib/liburing.a(nolibc.ol)
 .note.GNU-stack
                0x0000000000000000        0x0 /yuneta/development/outputs_ext/lib/libjansson.a(dump.c.o)
 .note.gnu.property
                0x0000000000000000       0x20 /yuneta/development/outputs_ext/lib/libjansson.a(dump.c.o)
 .note.GNU-stack
                0x0000000000000000        0x0 /yuneta/development/outputs_ext/lib/libjansson.a(hashtable.c.o)
 .note.gnu.property
                0x0000000000000000       0x20 /yuneta/development/outputs_ext/lib/libjansson.a(hashtable.c.o)
 .note.GNU-stack
                0x0000000000000000        0x0 /yuneta/development/outputs_ext/lib/libjansson.a(hashtable_seed.c.o)
 .note.gnu.property
                0x0000000000000000       0x20 /yuneta/development/outputs_ext/lib/libjansson.a(hashtable_seed.c.o)
 .note.GNU-stack
                0x0000000000000000        0x0 /yuneta/development/outputs_ext/lib/libjansson.a(load.c.o)
 .note.gnu.property
                0x0000000000000000       0x20 /yuneta/development/outputs_ext/lib/libjansson.a(load.c.o)
 .note.GNU-stack
                0x0000000000000000        0x0 /yuneta/development/outputs_ext/lib/libjansson.a(memory.c.o)
 .note.gnu.property
                0x0000000000000000       0x20 /yuneta/development/outputs_ext/lib/libjansson.a(memory.c.o)
 .note.GNU-stack
                0x0000000000000000        0x0 /yuneta/development/outputs_ext/lib/libjansson.a(pack_unpack.c.o)
 .note.gnu.property
                0x0000000000000000       0x20 /yuneta/development/outputs_ext/lib/libjansson.a(pack_unpack.c.o)
 .note.GNU-stack
                0x0000000000000000        0x0 /yuneta/development/outputs_ext/lib/libjansson.a(strbuffer.c.o)
 .note.gnu.property
                0x0000000000000000       0x20 /yuneta/development/outputs_ext/lib/libjansson.a(strbuffer.c.o)
 .note.GNU-stack
                0x0000000000000000        0x0 /yuneta/development/outputs_ext/lib/libjansson.a(strconv.c.o)
 .note.gnu.property
                0x0000000000000000       0x20 /yuneta/development/outputs_ext/lib/libjansson.a(strconv.c.o)
 .note.GNU-stack
                0x0000000000000000        0x0 /yuneta/development/outputs_ext/lib/libjansson.a(utf.c.o)
 .note.gnu.property
                0x0000000000000000       0x20 /yuneta/development/outputs_ext/lib/libjansson.a(utf.c.o)
 .note.GNU-stack
                0x0000000000000000        0x0 /yuneta/development/outputs_ext/lib/libjansson.a(value.c.o)
 .note.gnu.property
                0x0000000000000000       0x20 /yuneta/development/outputs_ext/lib/libjansson.a(value.c.o)
 .note.GNU-stack
                0x0000000000000000        0x0 /yuneta/development/outputs_ext/lib/libjansson.a(dtoa.c.o)
 .note.gnu.property
                0x0000000000000000       0x20 /yuneta/development/outputs_ext/lib/libjansson.a(dtoa.c.o)
 .note.GNU-stack
                0x0000000000000000        0x0 /yuneta/development/outputs_ext/lib/libjansson.a(error.c.o)
 .note.gnu.property
                0x0000000000000000       0x20 /yuneta/development/outputs_ext/lib/libjansson.a(error.c.o)
 .note.GNU-stack
                0x0000000000000000        0x0 /yuneta/development/outputs_ext/lib/libpcre2-8.a(pcre2_compile.c.o)
 .note.gnu.property
                0x0000000000000000       0x20 /yuneta/development/outputs_ext/lib/libpcre2-8.a(pcre2_compile.c.o)
 .note.GNU-stack
                0x0000000000000000        0x0 /yuneta/development/outputs_ext/lib/libpcre2-8.a(pcre2_compile_class.c.o)
 .note.gnu.property
                0x0000000000000000       0x20 /yuneta/development/outputs_ext/lib/libpcre2-8.a(pcre2_compile_class.c.o)
 .note.GNU-stack
                0x0000000000000000        0x0 /yuneta/development/outputs_ext/lib/libpcre2-8.a(pcre2_context.c.o)
 .note.gnu.property
                0x0000000000000000       0x20 /yuneta/development/outputs_ext/lib/libpcre2-8.a(pcre2_context.c.o)
 .note.GNU-stack
                0x0000000000000000        0x0 /yuneta/development/outputs_ext/lib/libpcre2-8.a(pcre2_find_bracket.c.o)
 .note.gnu.property
                0x0000000000000000       0x20 /yuneta/development/outputs_ext/lib/libpcre2-8.a(pcre2_find_bracket.c.o)
 .note.GNU-stack
                0x0000000000000000        0x0 /yuneta/development/outputs_ext/lib/libpcre2-8.a(pcre2_jit_compile.c.o)
 .note.gnu.property
                0x0000000000000000       0x20 /yuneta/development/outputs_ext/lib/libpcre2-8.a(pcre2_jit_compile.c.o)
 .note.GNU-stack
                0x0000000000000000        0x0 /yuneta/development/outputs_ext/lib/libpcre2-8.a(pcre2_match.c.o)
 .note.gnu.property
                0x0000000000000000       0x20 /yuneta/development/outputs_ext/lib/libpcre2-8.a(pcre2_match.c.o)
 .note.GNU-stack
                0x0000000000000000        0x0 /yuneta/development/outputs_ext/lib/libpcre2-8.a(pcre2_match_data.c.o)
 .note.gnu.property
                0x0000000000000000       0x20 /yuneta/development/outputs_ext/lib/libpcre2-8.a(pcre2_match_data.c.o)
 .note.GNU-stack
                0x0000000000000000        0x0 /yuneta/development/outputs_ext/lib/libpcre2-8.a(pcre2_newline.c.o)
 .note.gnu.property
                0x0000000000000000       0x20 /yuneta/development/outputs_ext/lib/libpcre2-8.a(pcre2_newline.c.o)
 .note.GNU-stack
                0x0000000000000000        0x0 /yuneta/development/outputs_ext/lib/libpcre2-8.a(pcre2_ord2utf.c.o)
 .note.gnu.property
                0x0000000000000000       0x20 /yuneta/development/outputs_ext/lib/libpcre2-8.a(pcre2_ord2utf.c.o)
 .note.GNU-stack
                0x0000000000000000        0x0 /yuneta/development/outputs_ext/lib/libpcre2-8.a(pcre2_script_run.c.o)
 .note.gnu.property
                0x0000000000000000       0x20 /yuneta/development/outputs_ext/lib/libpcre2-8.a(pcre2_script_run.c.o)
 .note.GNU-stack
                0x0000000000000000        0x0 /yuneta/development/outputs_ext/lib/libpcre2-8.a(pcre2_string_utils.c.o)
 .note.gnu.property
                0x0000000000000000       0x20 /yuneta/development/outputs_ext/lib/libpcre2-8.a(pcre2_string_utils.c.o)
 .note.GNU-stack
                0x0000000000000000        0x0 /yuneta/development/outputs_ext/lib/libpcre2-8.a(pcre2_study.c.o)
 .note.gnu.property
                0x0000000000000000       0x20 /yuneta/development/outputs_ext/lib/libpcre2-8.a(pcre2_study.c.o)
 .note.GNU-stack
                0x0000000000000000        0x0 /yuneta/development/outputs_ext/lib/libpcre2-8.a(pcre2_tables.c.o)
 .note.gnu.property
                0x0000000000000000       0x20 /yuneta/development/outputs_ext/lib/libpcre2-8.a(pcre2_tables.c.o)
 .note.GNU-stack
                0x0000000000000000        0x0 /yuneta/development/outputs_ext/lib/libpcre2-8.a(pcre2_ucd.c.o)
 .note.gnu.property
                0x0000000000000000       0x20 /yuneta/development/outputs_ext/lib/libpcre2-8.a(pcre2_ucd.c.o)
 .note.GNU-stack
                0x0000000000000000        0x0 /yuneta/development/outputs_ext/lib/libpcre2-8.a(pcre2_valid_utf.c.o)
 .note.gnu.property
                0x0000000000000000       0x20 /yuneta/development/outputs_ext/lib/libpcre2-8.a(pcre2_valid_utf.c.o)
 .note.GNU-stack
                0x0000000000000000        0x0 /yuneta/development/outputs_ext/lib/libpcre2-8.a(pcre2_xclass.c.o)
 .note.gnu.property
                0x0000000000000000       0x20 /yuneta/development/outputs_ext/lib/libpcre2-8.a(pcre2_xclass.c.o)
 .note.GNU-stack
                0x0000000000000000        0x0 /yuneta/development/outputs_ext/lib/libpcre2-8.a(pcre2_auto_possess.c.o)
 .note.gnu.property
                0x0000000000000000       0x20 /yuneta/development/outputs_ext/lib/libpcre2-8.a(pcre2_auto_possess.c.o)
 .note.GNU-stack
                0x0000000000000000        0x0 /yuneta/development/outputs_ext/lib/libpcre2-8.a(pcre2_chartables.c.o)
 .note.gnu.property
                0x0000000000000000       0x20 /yuneta/development/outputs_ext/lib/libpcre2-8.a(pcre2_chartables.c.o)
 .note.GNU-stack
                0x0000000000000000        0x0 /yuneta/development/outputs_ext/lib/libpcre2-8.a(pcre2_chkdint.c.o)
 .note.gnu.property
                0x0000000000000000       0x20 /yuneta/development/outputs_ext/lib/libpcre2-8.a(pcre2_chkdint.c.o)
 .note.GNU-stack
                0x0000000000000000        0x0 /yuneta/development/outputs_ext/lib/libpcre2-8.a(pcre2_extuni.c.o)
 .note.gnu.property
                0x0000000000000000       0x20 /yuneta/development/outputs_ext/lib/libpcre2-8.a(pcre2_extuni.c.o)
 .note.GNU-stack
                0x0000000000000000        0x0 /yuneta/development/outputs_ext/lib/libbacktrace.a(state.o)
 .note.gnu.property
                0x0000000000000000       0x20 /yuneta/development/outputs_ext/lib/libbacktrace.a(state.o)
 .note.GNU-stack
                0x0000000000000000        0x0 /yuneta/development/outputs_ext/lib/libbacktrace.a(backtrace.o)
 .note.gnu.property
                0x0000000000000000       0x20 /yuneta/development/outputs_ext/lib/libbacktrace.a(backtrace.o)
 .note.GNU-stack
                0x0000000000000000        0x0 /yuneta/development/outputs_ext/lib/libbacktrace.a(mmap.o)
 .note.gnu.property
                0x0000000000000000       0x20 /yuneta/development/outputs_ext/lib/libbacktrace.a(mmap.o)
 .note.GNU-stack
                0x0000000000000000        0x0 /yuneta/development/outputs_ext/lib/libbacktrace.a(fileline.o)
 .note.gnu.property
                0x0000000000000000       0x20 /yuneta/development/outputs_ext/lib/libbacktrace.a(fileline.o)
 .note.GNU-stack
                0x0000000000000000        0x0 /yuneta/development/outputs_ext/lib/libbacktrace.a(posix.o)
 .note.gnu.property
                0x0000000000000000       0x20 /yuneta/development/outputs_ext/lib/libbacktrace.a(posix.o)
 .note.GNU-stack
                0x0000000000000000        0x0 /yuneta/development/outputs_ext/lib/libbacktrace.a(elf.o)
 .note.gnu.property
                0x0000000000000000       0x20 /yuneta/development/outputs_ext/lib/libbacktrace.a(elf.o)
 .note.GNU-stack
                0x0000000000000000        0x0 /yuneta/development/outputs_ext/lib/libbacktrace.a(mmapio.o)
 .note.gnu.property
                0x0000000000000000       0x20 /yuneta/development/outputs_ext/lib/libbacktrace.a(mmapio.o)
 .note.GNU-stack
                0x0000000000000000        0x0 /yuneta/development/outputs_ext/lib/libbacktrace.a(dwarf.o)
 .note.gnu.property
                0x0000000000000000       0x20 /yuneta/development/outputs_ext/lib/libbacktrace.a(dwarf.o)
 .note.GNU-stack
                0x0000000000000000        0x0 /yuneta/development/outputs_ext/lib/libbacktrace.a(sort.o)
 .note.gnu.property
                0x0000000000000000       0x20 /yuneta/development/outputs_ext/lib/libbacktrace.a(sort.o)
 .note.GNU-stack
                0x0000000000000000        0x0 /usr/lib/gcc/x86_64-linux-gnu/13/libgcc_eh.a(unwind-dw2.o)
 .note.gnu.property
                0x0000000000000000       0x20 /usr/lib/gcc/x86_64-linux-gnu/13/libgcc_eh.a(unwind-dw2.o)
 .note.GNU-stack
                0x0000000000000000        0x0 /usr/lib/gcc/x86_64-linux-gnu/13/libgcc_eh.a(unwind-dw2-fde-dip.o)
 .note.gnu.property
                0x0000000000000000       0x20 /usr/lib/gcc/x86_64-linux-gnu/13/libgcc_eh.a(unwind-dw2-fde-dip.o)
 .note.GNU-stack
                0x0000000000000000        0x0 /usr/lib/gcc/x86_64-linux-gnu/13/crtendS.o
 .note.gnu.property
                0x0000000000000000       0x20 /usr/lib/gcc/x86_64-linux-gnu/13/crtendS.o

Memory Configuration

Name             Origin             Length             Attributes
*default*        0x0000000000000000 0xffffffffffffffff

Linker script and memory map

LOAD /usr/local/musl/lib/Scrt1.o
LOAD /usr/local/musl/lib/crti.o
LOAD /usr/lib/gcc/x86_64-linux-gnu/13/crtbeginS.o
LOAD CMakeFiles/fs_watcher.dir/src/main_fs_watcher.c.o
LOAD /yuneta/development/outputs_ext/lib/libargp-standalone.a
LOAD /yuneta/development/outputs/lib/libtimeranger2.a
LOAD /yuneta/development/outputs/lib/libyev_loop.a
LOAD /yuneta/development/outputs/lib/libyunetas-gobj.a
LOAD /yuneta/development/outputs_ext/lib/liburing.a
LOAD /yuneta/development/outputs_ext/lib/libjansson.a
LOAD /yuneta/development/outputs_ext/lib/libpcre2-8.a
LOAD /yuneta/development/outputs_ext/lib/libbacktrace.a
LOAD /usr/lib/gcc/x86_64-linux-gnu/13/libgcc.a
LOAD /usr/lib/gcc/x86_64-linux-gnu/13/libgcc_eh.a
LOAD /usr/local/musl/lib/libc.so
LOAD /usr/lib/gcc/x86_64-linux-gnu/13/libgcc.a
LOAD /usr/lib/gcc/x86_64-linux-gnu/13/libgcc_eh.a
LOAD /usr/lib/gcc/x86_64-linux-gnu/13/crtendS.o
LOAD /usr/local/musl/lib/crtn.o
                [!provide]                        PROVIDE (__executable_start = SEGMENT_START ("text-segment", 0x0))
                0x0000000000000238                . = (SEGMENT_START ("text-segment", 0x0) + SIZEOF_HEADERS)

.interp         0x0000000000000238       0x19
 *(.interp)
 .interp        0x0000000000000238       0x19 /usr/local/musl/lib/Scrt1.o

.note.gnu.build-id
 *(.note.gnu.build-id)

.hash           0x0000000000000258      0x464
 *(.hash)
 .hash          0x0000000000000258      0x464 /usr/local/musl/lib/Scrt1.o

.gnu.hash       0x00000000000006c0       0x44
 *(.gnu.hash)
 .gnu.hash      0x00000000000006c0       0x44 /usr/local/musl/lib/Scrt1.o

.dynsym         0x0000000000000708      0xde0
 *(.dynsym)
 .dynsym        0x0000000000000708      0xde0 /usr/local/musl/lib/Scrt1.o

.dynstr         0x00000000000014e8      0x55f
 *(.dynstr)
 .dynstr        0x00000000000014e8      0x55f /usr/local/musl/lib/Scrt1.o

.gnu.version    0x0000000000001a48        0x0
 *(.gnu.version)
 .gnu.version   0x0000000000001a48        0x0 /usr/local/musl/lib/Scrt1.o

.gnu.version_d  0x0000000000001a48        0x0
 *(.gnu.version_d)
 .gnu.version_d
                0x0000000000001a48        0x0 /usr/local/musl/lib/Scrt1.o

.gnu.version_r  0x0000000000001a48        0x0
 *(.gnu.version_r)
 .gnu.version_r
                0x0000000000001a48        0x0 /usr/local/musl/lib/Scrt1.o

.rela.dyn       0x0000000000001a48     0x3078
 *(.rela.init)
 *(.rela.text .rela.text.* .rela.gnu.linkonce.t.*)
 .rela.text     0x0000000000001a48        0x0 /usr/local/musl/lib/Scrt1.o
 *(.rela.fini)
 *(.rela.rodata .rela.rodata.* .rela.gnu.linkonce.r.*)
 *(.rela.data .rela.data.* .rela.gnu.linkonce.d.*)
 .rela.data.rel.ro
                0x0000000000001a48       0x30 /usr/local/musl/lib/Scrt1.o
 .rela.data.rel.local
                0x0000000000001a78      0xed0 /usr/local/musl/lib/Scrt1.o
 .rela.data.rel.ro.local
                0x0000000000002948     0x1f38 /usr/local/musl/lib/Scrt1.o
 .rela.data.rel
                0x0000000000004880       0x78 /usr/local/musl/lib/Scrt1.o
 *(.rela.tdata .rela.tdata.* .rela.gnu.linkonce.td.*)
 *(.rela.tbss .rela.tbss.* .rela.gnu.linkonce.tb.*)
 *(.rela.ctors)
 *(.rela.dtors)
 *(.rela.got)
 .rela.got      0x00000000000048f8      0x180 /usr/local/musl/lib/Scrt1.o
 *(.rela.bss .rela.bss.* .rela.gnu.linkonce.b.*)
 .rela.bss      0x0000000000004a78        0x0 /usr/local/musl/lib/Scrt1.o
 *(.rela.ldata .rela.ldata.* .rela.gnu.linkonce.l.*)
 *(.rela.lbss .rela.lbss.* .rela.gnu.linkonce.lb.*)
 *(.rela.lrodata .rela.lrodata.* .rela.gnu.linkonce.lr.*)
 *(.rela.ifunc)
 .rela.ifunc    0x0000000000004a78        0x0 /usr/local/musl/lib/Scrt1.o
 .rela.fini_array
                0x0000000000004a78       0x30 /usr/local/musl/lib/Scrt1.o
 .rela.init_array
                0x0000000000004aa8       0x18 /usr/local/musl/lib/Scrt1.o

.rela.plt       0x0000000000004ac0      0xe58
 *(.rela.plt)
 .rela.plt      0x0000000000004ac0      0xe58 /usr/local/musl/lib/Scrt1.o
 *(.rela.iplt)

.relr.dyn
 *(.relr.dyn)
                0x0000000000006000                . = ALIGN (CONSTANT (MAXPAGESIZE))

.init           0x0000000000006000        0x3
 *(SORT_NONE(.init))
 .init          0x0000000000006000        0x1 /usr/local/musl/lib/crti.o
                0x0000000000006000                _init
 .init          0x0000000000006001        0x2 /usr/local/musl/lib/crtn.o

.plt            0x0000000000006010      0x9a0
 *(.plt)
 .plt           0x0000000000006010      0x9a0 /usr/local/musl/lib/Scrt1.o
                0x0000000000006020                putchar
                0x0000000000006030                clock_gettime
                0x0000000000006040                inotify_init1
                0x0000000000006070                sysconf
                0x0000000000006090                sigemptyset
                0x00000000000060a0                strerror
                0x00000000000060b0                strndup
                0x00000000000060c0                inet_pton
                0x00000000000060d0                __xpg_basename
                0x00000000000060e0                memmove
                0x00000000000060f0                snprintf
                0x0000000000006100                munmap
                0x0000000000006110                getpagesize
                0x0000000000006120                getpid
                0x0000000000006130                qsort
                0x0000000000006140                fgets
                0x0000000000006150                dirname
                0x0000000000006180                memcpy
                0x0000000000006190                perror
                0x00000000000061a0                readlink
                0x00000000000061b0                puts
                0x00000000000061c0                dup2
                0x00000000000061d0                getuid
                0x00000000000061e0                malloc
                0x00000000000061f0                remove
                0x0000000000006210                isatty
                0x0000000000006220                sysinfo
                0x0000000000006240                rmdir
                0x0000000000006250                socket
                0x0000000000006260                readdir
                0x0000000000006270                fflush
                0x0000000000006280                posix_madvise
                0x0000000000006290                mmap
                0x00000000000062a0                strncasecmp
                0x00000000000062b0                freeaddrinfo
                0x00000000000062c0                abort
                0x00000000000062d0                __stack_chk_fail
                0x00000000000062e0                gmtime_r
                0x00000000000062f0                chmod
                0x0000000000006300                pipe
                0x0000000000006310                strnlen
                0x0000000000006320                uname
                0x0000000000006330                rename
                0x0000000000006350                strrchr
                0x0000000000006360                __ctype_tolower_loc
                0x0000000000006370                calloc
                0x0000000000006380                strtod
                0x0000000000006390                sendfile
                0x00000000000063a0                write
                0x00000000000063b0                fstat
                0x00000000000063c0                dl_iterate_phdr
                0x00000000000063d0                strcat
                0x00000000000063e0                bind
                0x00000000000063f0                pthread_cond_broadcast
                0x0000000000006400                pthread_once
                0x0000000000006410                madvise
                0x0000000000006420                fstatvfs
                0x0000000000006430                setsockopt
                0x0000000000006450                fseek
                0x0000000000006460                memchr
                0x0000000000006470                umask
                0x0000000000006490                mktime
                0x00000000000064a0                lstat
                0x00000000000064b0                ferror
                0x00000000000064c0                strstr
                0x00000000000064d0                flock
                0x00000000000064e0                signal
                0x00000000000064f0                read
                0x0000000000006500                inotify_rm_watch
                0x0000000000006510                strncmp
                0x0000000000006520                strncpy
                0x0000000000006530                unlink
                0x0000000000006540                sendto
                0x0000000000006550                realloc
                0x0000000000006560                strtok
                0x0000000000006570                memcmp
                0x0000000000006580                listen
                0x0000000000006590                fork
                0x00000000000065a0                timerfd_create
                0x00000000000065b0                sigaction
                0x00000000000065c0                fread
                0x00000000000065e0                strdup
                0x00000000000065f0                regcomp
                0x0000000000006600                gettimeofday
                0x0000000000006610                fopen
                0x0000000000006620                localtime
                0x0000000000006630                memset
                0x0000000000006640                ftell
                0x0000000000006670                fclose
                0x0000000000006680                inet_ntoa
                0x0000000000006690                regexec
                0x00000000000066a0                time
                0x00000000000066b0                opendir
                0x00000000000066d0                pthread_mutex_unlock
                0x00000000000066e0                getpwuid
                0x00000000000066f0                atexit
                0x0000000000006700                getpeername
                0x0000000000006710                strsep
                0x0000000000006720                inotify_add_watch
                0x0000000000006730                fputc
                0x0000000000006740                __ctype_b_loc
                0x0000000000006750                getsockopt
                0x0000000000006760                localtime_r
                0x0000000000006770                getaddrinfo
                0x0000000000006790                strftime
                0x00000000000067a0                stat
                0x00000000000067b0                fwrite
                0x00000000000067c0                access
                0x00000000000067d0                pthread_mutex_lock
                0x00000000000067f0                pthread_cond_wait
                0x0000000000006810                __errno_location
                0x0000000000006820                exit
                0x0000000000006830                inet_ntop
                0x0000000000006840                getrandom
                0x0000000000006860                fileno
                0x0000000000006870                __ctype_toupper_loc
                0x0000000000006880                gmtime
                0x0000000000006890                strspn
                0x00000000000068a0                __libc_start_main
                0x00000000000068b0                strlen
                0x00000000000068c0                open
                0x00000000000068d0                regfree
                0x00000000000068e0                strchr
                0x00000000000068f0                fputs
                0x0000000000006900                timerfd_settime
                0x0000000000006910                execvp
                0x0000000000006920                setsid
                0x0000000000006930                closedir
                0x0000000000006940                fcntl
                0x0000000000006950                sched_yield
                0x0000000000006960                mkdir
                0x0000000000006970                close
                0x0000000000006990                free
                0x00000000000069a0                getsockname
 *(.iplt)

.plt.got        0x00000000000069b0       0x20
 *(.plt.got)
 .plt.got       0x00000000000069b0       0x20 /usr/local/musl/lib/Scrt1.o
                0x00000000000069b0                printf
                0x00000000000069b8                __cxa_finalize
                0x00000000000069c0                strcasecmp
                0x00000000000069c8                strcmp

.plt.sec
 *(.plt.sec)

.text           0x00000000000069d0    0xf0b2c
 *(.text.unlikely .text.*_unlikely .text.unlikely.*)
 .text.unlikely
                0x00000000000069d0       0x6c /yuneta/development/outputs/lib/libyev_loop.a(yev_loop.c.o)
 .text.unlikely
                0x0000000000006a3c        0xf /yuneta/development/outputs/lib/libyunetas-gobj.a(glogger.c.o)
 .text.unlikely
                0x0000000000006a4b       0x11 /yuneta/development/outputs/lib/libyunetas-gobj.a(helpers.c.o)
 .text.unlikely
                0x0000000000006a5c        0xe /yuneta/development/outputs/lib/libyunetas-gobj.a(kwid.c.o)
 .text.unlikely
                0x0000000000006a6a        0xa /yuneta/development/outputs/lib/libyunetas-gobj.a(00_http_parser.c.o)
 .text.unlikely
                0x0000000000006a74      0x32d /yuneta/development/outputs_ext/lib/liburing.a(setup.ol)
                0x0000000000006a74                io_uring_queue_mmap
                0x0000000000006aa8                io_uring_ring_dontfork
                0x0000000000006b66                io_uring_queue_init
                0x0000000000006bbf                io_uring_queue_exit
                0x0000000000006c4d                io_uring_get_probe_ring
                0x0000000000006c9d                io_uring_get_probe
                0x0000000000006ce4                io_uring_free_probe
                0x0000000000006ced                io_uring_mlock_size_params
                0x0000000000006d66                io_uring_mlock_size
 .text.unlikely
                0x0000000000006da1        0x9 /yuneta/development/outputs_ext/lib/libjansson.a(dump.c.o)
 .text.unlikely
                0x0000000000006daa        0x8 /yuneta/development/outputs_ext/lib/libjansson.a(value.c.o)
 .text.unlikely
                0x0000000000006db2        0xf /yuneta/development/outputs_ext/lib/libpcre2-8.a(pcre2_jit_compile.c.o)
 .text.unlikely
                0x0000000000006dc1        0x8 /yuneta/development/outputs_ext/lib/libbacktrace.a(elf.o)
 .text.unlikely
                0x0000000000006dc9       0x62 /usr/lib/gcc/x86_64-linux-gnu/13/libgcc_eh.a(unwind-dw2.o)
 .text.unlikely
                0x0000000000006e2b       0x36 /usr/lib/gcc/x86_64-linux-gnu/13/libgcc_eh.a(unwind-dw2-fde-dip.o)
 *(.text.exit .text.exit.*)
 *fill*         0x0000000000006e61        0xf 
 .text.exit     0x0000000000006e70       0xf9 /usr/lib/gcc/x86_64-linux-gnu/13/libgcc_eh.a(unwind-dw2-fde-dip.o)
 *(.text.startup .text.startup.*)
 *(.text.hot .text.hot.*)
 *(SORT_BY_NAME(.text.sorted.*))
 *(.text .stub .text.* .gnu.linkonce.t.*)
 *fill*         0x0000000000006f69        0x3 
 .text          0x0000000000006f6c       0x39 /usr/local/musl/lib/Scrt1.o
                0x0000000000006f6c                _start
                0x0000000000006f82                _start_c
 *fill*         0x0000000000006fa5        0x3 
 .text          0x0000000000006fa8        0x0 /usr/local/musl/lib/crti.o
 *fill*         0x0000000000006fa8        0x8 
 .text          0x0000000000006fb0       0xb9 /usr/lib/gcc/x86_64-linux-gnu/13/crtbeginS.o
 .text          0x0000000000007069      0x59d CMakeFiles/fs_watcher.dir/src/main_fs_watcher.c.o
                0x0000000000007339                main
 *fill*         0x0000000000007606        0xa 
 .text          0x0000000000007610     0x1566 /yuneta/development/outputs/lib/libtimeranger2.a(fs_watcher.c.o)
                0x0000000000008740                fs_create_watcher_event
                0x0000000000008b20                fs_start_watcher_event
                0x0000000000008b40                fs_stop_watcher_event
 *fill*         0x0000000000008b76        0xa 
 .text          0x0000000000008b80     0x8a1c /yuneta/development/outputs/lib/libyev_loop.a(yev_loop.c.o)
                0x0000000000008ea0                yev_loop_create
                0x0000000000009150                yev_loop_destroy
                0x0000000000009180                yev_loop_stop
                0x00000000000092b0                yev_loop_reset_running
                0x00000000000092c0                yev_protocol_set_protocol_fill_hints_fn
                0x00000000000092d0                yev_get_state_name
                0x0000000000009320                yev_set_gbuffer
                0x00000000000094b0                yev_get_yuno
                0x00000000000094c0                yev_start_event
                0x000000000000ac80                yev_start_timer_event
                0x000000000000b670                yev_stop_event
                0x000000000000be10                yev_destroy_event
                0x000000000000c410                yev_create_timer_event
                0x000000000000c700                yev_create_accept_event
                0x000000000000d540                yev_dup_accept_event
                0x000000000000d880                yev_dup2_accept_event
                0x000000000000db90                yev_create_poll_event
                0x000000000000de80                yev_create_read_event
                0x000000000000e170                yev_create_write_event
                0x000000000000e460                yev_create_recvmsg_event
                0x000000000000e790                yev_create_sendmsg_event
                0x000000000000eac0                set_tcp_socket_options
                0x000000000000fcc0                yev_loop_run
                0x00000000000100c0                yev_loop_run_once
                0x0000000000010350                yev_rearm_connect_event
                0x0000000000010f20                yev_create_connect_event
                0x0000000000011250                is_tcp_socket
                0x00000000000112c0                is_udp_socket
                0x0000000000011330                get_peername
                0x0000000000011460                get_sockname
                0x0000000000011590                yev_flag_strings
 *fill*         0x000000000001159c        0x4 
 .text          0x00000000000115a0    0x1d10c /yuneta/development/outputs/lib/libyunetas-gobj.a(gobj.c.o)
                0x0000000000014070                gobj_start_up
                0x0000000000014300                gobj_is_shutdowning
                0x0000000000014310                gobj_set_exit_code
                0x0000000000014320                gobj_get_exit_code
                0x0000000000014330                gclass_add_state
                0x00000000000144b0                gclass_add_ev_action
                0x0000000000014740                gclass_add_event_type
                0x0000000000014800                gobj_find_event_type
                0x0000000000014930                gclass_find_public_event
                0x0000000000014a00                gclass_unregister
                0x0000000000014b40                gclass_gclass_name
                0x0000000000014b60                gclass_has_attr
                0x0000000000014bd0                gclass_gclass_register
                0x0000000000014c60                gclass_find_by_name
                0x0000000000014ce0                gclass_event_type
                0x0000000000014d20                gclass_check_fsm
                0x0000000000015020                gclass_create
                0x0000000000015710                gobj_service_register
                0x0000000000015850                gobj_load_persistent_attrs
                0x0000000000015a30                gobj_save_persistent_attrs
                0x0000000000015c10                gobj_remove_persistent_attrs
                0x0000000000015cf0                gobj_list_persistent_attrs
                0x0000000000015ff0                gobj_sdata_create
                0x0000000000016040                gobj_hsdata
                0x0000000000016060                gclass_authz_desc
                0x0000000000016070                gclass_attr_desc
                0x00000000000161a0                gobj_attr_desc
                0x0000000000016230                gobj_attr_type
                0x00000000000162c0                gobj_has_attr
                0x0000000000016340                gobj_is_readable_attr
                0x00000000000163e0                gobj_is_writable_attr
                0x0000000000016480                gobj_reset_volatil_attrs
                0x0000000000016510                gobj_reset_rstats_attrs
                0x00000000000165a0                gobj_read_attr
                0x0000000000016650                gobj_read_attrs
                0x0000000000016720                gobj_read_user_data
                0x00000000000167a0                gobj_write_attr
                0x0000000000016a80                gobj_write_attrs
                0x0000000000016d70                gobj_write_user_data
                0x0000000000016de0                gobj_hsdata2
                0x0000000000016f70                gobj_has_bottom_attr
                0x0000000000017010                gobj_kw_get_user_data
                0x0000000000017040                gobj_read_str_attr
                0x00000000000171d0                gobj_read_bool_attr
                0x00000000000173a0                gobj_read_real_attr
                0x0000000000017490                gobj_read_json_attr
                0x0000000000017580                gobj_read_pointer_attr
                0x0000000000017680                gobj_write_str_attr
                0x00000000000177b0                gobj_write_strn_attr
                0x0000000000017980                gobj_write_bool_attr
                0x0000000000017a90                gobj_write_integer_attr
                0x0000000000017ba0                gobj_write_real_attr
                0x0000000000017cb0                gobj_write_json_attr
                0x0000000000017e80                gobj_write_new_json_attr
                0x0000000000018050                gobj_write_pointer_attr
                0x0000000000018160                gobj_local_method
                0x00000000000182d0                gobj_audit_commands
                0x00000000000182f0                gobj_set_bottom_gobj
                0x0000000000018510                gobj_last_bottom_gobj
                0x0000000000018540                gobj_bottom_gobj
                0x0000000000018560                gobj_services
                0x00000000000185f0                gobj_default_service
                0x0000000000018600                gobj_find_service
                0x0000000000018840                gobj_find_service_by_gclass
                0x00000000000189a0                gobj_nearest_top_service
                0x0000000000018a30                gobj_first_child
                0x0000000000018a90                gobj_last_child
                0x0000000000018af0                gobj_next_child
                0x0000000000018b50                gobj_prev_child
                0x0000000000018bb0                gobj_child_by_name
                0x0000000000018c70                gobj_child_by_index
                0x0000000000018d00                gobj_child_size
                0x0000000000018d10                gobj_match_gobj
                0x00000000000193c0                gobj_child_size2
                0x00000000000195f0                gobj_find_child
                0x00000000000198f0                gobj_match_children
                0x0000000000019c30                gobj_match_children_tree
                0x0000000000019f20                gobj_free_iter
                0x000000000001a130                gobj_search_path
                0x000000000001a2f0                gobj_find_gobj
                0x000000000001a370                gobj_walk_gobj_children
                0x000000000001a450                gobj_walk_gobj_children_tree
                0x000000000001a4c0                gobj_yuno
                0x000000000001a4e0                gobj_yuno_name
                0x000000000001a510                gobj_yuno_role
                0x000000000001a650                gobj_yuno_id
                0x000000000001a790                gobj_yuno_tag
                0x000000000001a8d0                gobj_yuno_role_plus_name
                0x000000000001aa10                gobj_yuno_realm_id
                0x000000000001ab50                gobj_yuno_realm_owner
                0x000000000001ac90                gobj_yuno_realm_role
                0x000000000001add0                gobj_yuno_realm_name
                0x000000000001af10                gobj_yuno_realm_env
                0x000000000001b050                gobj_yuno_node_owner
                0x000000000001b190                gobj_name
                0x000000000001b1b0                gobj_gclass_name
                0x000000000001b1d0                gobj_gclass
                0x000000000001b1f0                gobj_full_name
                0x000000000001b210                gobj_short_name
                0x000000000001b230                gobj_global_variables
                0x000000000001b620                gobj_priv_data
                0x000000000001b630                gobj_parent
                0x000000000001b650                gobj_is_destroying
                0x000000000001b670                gobj_is_running
                0x000000000001b6a0                gobj_is_playing
                0x000000000001b6d0                gobj_is_service
                0x000000000001b6f0                gobj_is_disabled
                0x000000000001b720                gobj_is_volatil
                0x000000000001b730                gobj_set_volatil
                0x000000000001b750                gobj_is_pure_child
                0x000000000001b760                gobj_is_bottom_gobj
                0x000000000001b790                gobj_typeof_gclass
                0x000000000001b7c0                gobj_typeof_inherited_gclass
                0x000000000001b820                gclass_command_desc
                0x000000000001b950                gobj_command_desc
                0x000000000001b9e0                get_sdata_flag_table
                0x000000000001b9f0                get_attrs_schema
                0x000000000001bcf0                gclass2json
                0x000000000001cdb0                gobj_current_state
                0x000000000001ce20                gobj_in_this_state
                0x000000000001ce40                gobj_has_state
                0x000000000001ce80                gobj_has_event
                0x000000000001cfa0                gobj_has_output_event
                0x000000000001d0c0                gobj_event_type
                0x000000000001d1f0                gobj_event_type_by_name
                0x000000000001d310                gobj_subs_desc
                0x000000000001d320                gobj_find_subscriptions
                0x000000000001d370                gobj_find_subscribings
                0x000000000001d3c0                gobj_list_subscriptions
                0x000000000001d540                gobj_list_subscribings
                0x000000000001d6c0                gobj_authenticate
                0x000000000001d7d0                authzs_list
                0x000000000001d980                gobj_authzs
                0x000000000001d990                gobj_authz
                0x000000000001da00                gobj_get_global_authz_table
                0x000000000001da10                authz_get_level_desc
                0x000000000001daf0                gobj_build_authzs_doc
                0x000000000001dca0                gobj_set_stat
                0x000000000001dd10                gobj_incr_stat
                0x000000000001dd80                gobj_decr_stat
                0x000000000001ddf0                gobj_get_stat
                0x000000000001de20                gobj_jn_stats
                0x000000000001de30                gobj_create_resource
                0x000000000001e040                gobj_save_resource
                0x000000000001e290                gobj_delete_resource
                0x000000000001e570                gobj_list_resource
                0x000000000001e780                gobj_get_resource
                0x000000000001e990                gobj_treedbs
                0x000000000001eaa0                gobj_treedb_topics
                0x000000000001ebb0                gobj_topic_desc
                0x000000000001ecb0                gobj_topic_links
                0x000000000001edc0                gobj_topic_hooks
                0x000000000001eed0                gobj_topic_size
                0x000000000001efd0                gobj_create_node
                0x000000000001f1e0                gobj_update_node
                0x000000000001f3f0                gobj_delete_node
                0x000000000001f640                gobj_link_nodes
                0x000000000001f9e0                gobj_unlink_nodes
                0x000000000001fd80                gobj_get_node
                0x0000000000020050                gobj_list_nodes
                0x0000000000020320                gobj_list_instances
                0x00000000000205f0                gobj_node_parents
                0x00000000000208c0                gobj_node_children
                0x0000000000020ba0                gobj_topic_jtree
                0x0000000000020eb0                gobj_node_tree
                0x0000000000021120                gobj_shoot_snap
                0x0000000000021230                gobj_activate_snap
                0x0000000000021340                gobj_list_snaps
                0x0000000000021450                gobj_repr_global_trace_levels
                0x00000000000214f0                gobj_repr_gclass_trace_levels
                0x00000000000216f0                gobj_trace_level_list
                0x0000000000021760                gobj_get_global_trace_level
                0x0000000000021a10                gobj_get_gclass_trace_level
                0x0000000000021a30                gobj_get_gclass_trace_no_level
                0x0000000000021a50                gobj_get_gobj_trace_no_level
                0x0000000000021a80                gobj_get_gclass_trace_level_list
                0x0000000000021d90                gobj_get_gclass_trace_no_level_list
                0x00000000000220a0                gobj_get_gobj_trace_no_level_tree
                0x00000000000222f0                gobj_global_trace_level
                0x0000000000022310                gobj_trace_level
                0x0000000000022490                gobj_read_integer_attr
                0x00000000000225b0                gobj_start
                0x0000000000022b00                gobj_start_children
                0x0000000000022c00                gobj_start_tree
                0x0000000000022d40                gobj_enable
                0x0000000000022e60                gobj_autostart_services
                0x0000000000022f00                gobj_play
                0x0000000000023270                gobj_autoplay_services
                0x0000000000023300                gobj_pause
                0x00000000000234c0                gobj_pause_autoplay_services
                0x00000000000235f0                gobj_stop
                0x0000000000023840                gobj_stop_children
                0x0000000000023940                gobj_stop_tree
                0x0000000000023a70                gobj_disable
                0x0000000000023b70                gobj_stop_autostart_services
                0x0000000000023ca0                gobj_shutdown
                0x0000000000023d30                gobj_command
                0x0000000000024100                gobj_stats
                0x0000000000024410                gobj_change_state
                0x00000000000246f0                gobj_send_event
                0x0000000000025060                gobj_publish_event
                0x0000000000026000                gobj_send_event_to_children_tree
                0x0000000000026240                gobj_send_event_to_children
                0x00000000000264a0                gobj_user_has_authz
                0x0000000000026630                gobj_get_gobj_trace_level
                0x0000000000026d40                gobj_unsubscribe_list
                0x0000000000026f60                gobj_destroy
                0x00000000000279f0                gobj_end
                0x0000000000027cf0                gobj_destroy_children
                0x0000000000027de0                gobj_subscribe_event
                0x0000000000028dd0                gobj_unsubscribe_event
                0x00000000000293c0                gobj_create2
                0x000000000002a700                gobj_create_yuno
                0x000000000002a720                gobj_create_service
                0x000000000002a730                gobj_create_default_service
                0x000000000002a740                gobj_create_volatil
                0x000000000002a750                gobj_create_pure_child
                0x000000000002a760                gobj_create
                0x000000000002b480                gobj_create_tree
                0x000000000002b550                gobj_service_factory
                0x000000000002c020                gobj_get_gobj_trace_level_tree
                0x000000000002c100                gobj_destroy_named_children
                0x000000000002c2d0                gobj2json
                0x000000000002d180                gobj_view_tree
                0x000000000002d280                gobj_trace_no_level
                0x000000000002d2b0                gobj_set_deep_tracing
                0x000000000002d2c0                gobj_get_deep_tracing
                0x000000000002d2d0                gobj_set_global_trace
                0x000000000002d410                gobj_set_gobj_trace
                0x000000000002d8e0                gobj_set_gclass_trace
                0x000000000002dac0                gobj_set_global_no_trace
                0x000000000002dc00                gobj_load_trace_filter
                0x000000000002dd00                gobj_add_trace_filter
                0x000000000002df30                gobj_remove_trace_filter
                0x000000000002e1d0                gobj_get_trace_filter
                0x000000000002e1e0                gobj_set_gclass_no_trace
                0x000000000002e3e0                gobj_set_trace_machine_format
                0x000000000002e3f0                tab
                0x000000000002e460                gobj_set_gobj_no_trace
                0x000000000002e610                gobj_is_level_tracing
                0x000000000002e660                gobj_is_level_not_tracing
 *fill*         0x000000000002e6ac        0x4 
 .text          0x000000000002e6b0      0x5c5 /yuneta/development/outputs/lib/libyunetas-gobj.a(gbmem.c.o)
                0x000000000002ea40                gbmem_setup
                0x000000000002ea60                gbmem_shutdown
                0x000000000002ea70                gbmem_set_allocators
                0x000000000002eaa0                gbmem_get_allocators
                0x000000000002eaf0                gbmem_malloc
                0x000000000002eb00                gbmem_free
                0x000000000002eb10                gbmem_realloc
                0x000000000002eb20                gbmem_calloc
                0x000000000002eb30                gbmem_strndup
                0x000000000002ebd0                gbmem_strdup
                0x000000000002ec30                gbmem_get_maximum_block
                0x000000000002ec40                get_max_system_memory
                0x000000000002ec50                get_cur_system_memory
                0x000000000002ec60                set_memory_check_list
                0x000000000002ec70                print_track_mem
 *fill*         0x000000000002ec75        0xb 
 .text          0x000000000002ec80     0x2db7 /yuneta/development/outputs/lib/libyunetas-gobj.a(gbuffer.c.o)
                0x000000000002f010                gbuffer_create
                0x000000000002f1d0                gbuffer_remove
                0x000000000002f290                gbuffer_set_rd_offset
                0x000000000002f350                gbuffer_getline
                0x000000000002f3c0                gbuffer_set_wr
                0x000000000002f450                gbuffer_append
                0x000000000002f5f0                gbuffer_append_gbuf
                0x000000000002f8c0                gbuffer_append_json
                0x000000000002fb10                gbuffer_vprintf
                0x000000000002fd80                gbuffer_printf
                0x000000000002fe40                gbuffer_setlabel
                0x000000000002fee0                gbuf2file
                0x0000000000030170                gbuffer_string_to_base64
                0x0000000000030560                gbuffer_serialize
                0x0000000000030700                gbuffer_file2base64
                0x0000000000030860                gbuffer_base64_to_string
                0x0000000000030dd0                gbuffer_deserialize
                0x0000000000031050                gbuffer_encode_base64
                0x0000000000031110                str2gbuf
                0x00000000000313a0                json2gbuf
                0x00000000000314e0                gobj_trace_dump_gbuf
                0x00000000000316d0                gbuf2json
                0x0000000000031860                gobj_trace_dump_full_gbuf
 *fill*         0x0000000000031a37        0x9 
 .text          0x0000000000031a40     0x3b34 /yuneta/development/outputs/lib/libyunetas-gobj.a(glogger.c.o)
                0x0000000000031a40                stdout_write
                0x0000000000031c20                stdout_fwrite
                0x0000000000032a70                glog_init
                0x0000000000032a90                gobj_log_register_handler
                0x0000000000032b10                gobj_log_exist_handler
                0x0000000000032b90                gobj_log_list_handlers
                0x0000000000032c80                gobj_log_set_global_handler_option
                0x0000000000032ca0                gobj_get_log_priority_name
                0x0000000000032cc0                gobj_get_log_data
                0x0000000000032d80                gobj_log_clear_counters
                0x0000000000032dd0                gobj_log_last_message
                0x0000000000032de0                gobj_log_set_last_message
                0x0000000000033ee0                gobj_log_alert
                0x0000000000033fb0                gobj_log_critical
                0x0000000000034080                gobj_log_error
                0x0000000000034150                gobj_log_warning
                0x0000000000034220                gobj_log_info
                0x00000000000342f0                gobj_log_debug
                0x00000000000343c0                set_show_backtrace_fn
                0x00000000000343d0                print_backtrace
                0x0000000000034400                gobj_trace_msg
                0x00000000000344f0                trace_msg0
                0x0000000000034660                gobj_info_msg
                0x0000000000034750                gobj_trace_json
                0x0000000000034890                gobj_trace_buffer
                0x00000000000349b0                gobj_trace_dump
                0x0000000000034ad0                print_error
                0x0000000000034d40                gobj_log_add_handler
                0x0000000000034f40                gobj_log_del_handler
                0x00000000000350b0                glog_end
                0x0000000000035180                _log_bf
                0x00000000000351a0                trace_vjson
                0x00000000000351e0                trace_machine
                0x00000000000353d0                trace_machine2
 *fill*         0x0000000000035574        0xc 
 .text          0x0000000000035580      0xc0d /yuneta/development/outputs/lib/libyunetas-gobj.a(log_udp_handler.c.o)
                0x0000000000035820                udpc_start_up
                0x00000000000358b0                udpc_end
                0x0000000000035920                udpc_open
                0x0000000000035b60                udpc_close
                0x0000000000035bc0                udpc_write
                0x0000000000036070                udpc_fwrite
 *fill*         0x000000000003618d        0x3 
 .text          0x0000000000036190     0xdf64 /yuneta/development/outputs/lib/libyunetas-gobj.a(helpers.c.o)
                0x0000000000038c00                newdir
                0x0000000000038c50                newfile
                0x0000000000038cb0                open_exclusive
                0x0000000000038d00                filesize
                0x0000000000038d60                filesize2
                0x0000000000038dc0                lock_file
                0x0000000000038e20                unlock_file
                0x0000000000038e80                is_regular_file
                0x0000000000038ef0                is_directory
                0x0000000000038f60                file_size
                0x0000000000038fc0                file_permission
                0x0000000000039020                mkrdir
                0x0000000000039320                rmrdir
                0x00000000000395d0                delete_right_char
                0x0000000000039620                delete_left_char
                0x0000000000039690                build_path
                0x0000000000039960                file_exists
                0x0000000000039a00                subdir_exists
                0x0000000000039aa0                file_remove
                0x0000000000039b40                rmrcontentdir
                0x000000000003a320                get_last_segment
                0x000000000003a350                pop_last_segment
                0x000000000003a3a0                helper_quote2doublequote
                0x000000000003a3e0                helper_doublequote2quote
                0x000000000003a420                all_numbers
                0x000000000003a480                nice_size
                0x000000000003a690                delete_right_blanks
                0x000000000003a6e0                delete_left_blanks
                0x000000000003a760                left_justify
                0x000000000003a830                strntoupper
                0x000000000003a890                strntolower
                0x000000000003a8f0                translate_string
                0x000000000003aa20                change_char
                0x000000000003aa60                get_parameter
                0x000000000003ab60                get_key_value_parameter
                0x000000000003ad30                split2
                0x000000000003ae90                split_free2
                0x000000000003aef0                split3
                0x000000000003b010                split_free3
                0x000000000003b070                str_concat
                0x000000000003b0e0                str_concat3
                0x000000000003b180                str_concat_free
                0x000000000003b1a0                idx_in_list
                0x000000000003b220                str_in_list
                0x000000000003b280                load_json_from_file
                0x000000000003b420                save_json_to_file
                0x000000000003ba60                create_json_record
                0x000000000003bf30                json_desc_to_schema
                0x000000000003c0a0                bits2jn_strlist
                0x000000000003c220                bits2gbuffer
                0x000000000003c2e0                strings2bits
                0x000000000003c450                json_list_str_index
                0x000000000003c590                json_list_int
                0x000000000003c630                json_list_int_index
                0x000000000003c6f0                json_list_find
                0x000000000003c7a0                json_list_update
                0x000000000003c8b0                json_is_range
                0x000000000003c950                json_range_list
                0x000000000003ca30                json_listsrange2set
                0x000000000003cb70                json_dict_recursive_update
                0x000000000003cdc0                jn2real
                0x000000000003ce40                jn2integer
                0x000000000003cef0                jn2string
                0x000000000003d010                jn2bool
                0x000000000003d0a0                cmp_two_simple_json
                0x000000000003d300                json_is_identical
                0x000000000003d310                anystring2json
                0x000000000003d4a0                string2json
                0x000000000003d5d0                set_real_precision
                0x000000000003d5f0                get_real_precision
                0x000000000003d600                json2str
                0x000000000003d630                json2uglystr
                0x000000000003d660                json_size
                0x000000000003d6b0                json_check_refcounts
                0x000000000003e120                json_print_refcounts
                0x000000000003e410                json_str_in_list
                0x000000000003e590                walk_dir_tree
                0x000000000003e710                dir_array_free
                0x000000000003e7a0                find_files_with_suffix_array
                0x000000000003ec50                dir_array_sort
                0x000000000003ec80                walk_dir_array
                0x000000000003ee00                get_ordered_filename_array
                0x000000000003efa0                tm_to_time_t
                0x000000000003f050                show_date_relative
                0x000000000003f2c0                date_mode_from_type
                0x000000000003f300                show_date
                0x000000000003f870                parse_date_basic
                0x00000000000404b0                parse_expiry_date
                0x00000000000405a0                parse_date
                0x0000000000040660                parse_date_format
                0x0000000000040a00                datestamp
                0x0000000000040af0                approxidate_relative
                0x0000000000040b70                approxidate_careful
                0x0000000000040c10                date_overflows
                0x0000000000040c30                hex2bin
                0x0000000000040cd0                bin2hex
                0x0000000000040d50                tdump
                0x0000000000041280                tdump2json
                0x00000000000415a0                print_json2
                0x0000000000041660                debug_json
                0x0000000000041a60                current_timestamp
                0x0000000000041b30                tm2timestamp
                0x0000000000041b50                t2timestamp
                0x0000000000041bb0                start_sectimer
                0x0000000000041c00                test_sectimer
                0x0000000000041c50                start_msectimer
                0x0000000000041cc0                test_msectimer
                0x0000000000041d40                time_in_milliseconds_monotonic
                0x0000000000041db0                time_in_milliseconds
                0x0000000000041e10                time_in_seconds
                0x0000000000041e50                cpu_usage
                0x0000000000041ef0                cpu_usage_percent
                0x0000000000042090                htonll
                0x00000000000420b0                ntohll
                0x00000000000420d0                list_open_files
                0x00000000000422c0                formatdate
                0x00000000000423a0                count_char
                0x00000000000423d0                get_hostname
                0x00000000000424f0                create_random_uuid
                0x00000000000426d0                node_uuid
                0x0000000000042800                is_metadata_key
                0x0000000000042890                is_private_key
                0x0000000000042920                comm_prot_register
                0x00000000000429e0                comm_prot_get_gclass
                0x0000000000042a90                comm_prot_free
                0x0000000000042b00                launch_daemon
                0x0000000000042ef0                parse_url
                0x0000000000043210                get_url_schema
                0x0000000000043390                show_backtrace_with_backtrace
                0x0000000000043410                init_backtrace_with_backtrace
                0x0000000000043490                free_ram_in_kb
                0x0000000000043680                total_ram_in_kb
                0x0000000000043780                read_process_cmdline
                0x00000000000438c0                copyfile
                0x00000000000439e0                set_nonblocking
                0x0000000000043b30                set_cloexec
                0x0000000000043cd0                load_persistent_json
                0x0000000000044020                upper
                0x0000000000044060                lower
                0x00000000000440a0                capitalize
 *fill*         0x00000000000440f4        0xc 
 .text          0x0000000000044100     0xa16e /yuneta/development/outputs/lib/libyunetas-gobj.a(kwid.c.o)
                0x0000000000044ae0                kw_add_binary_type
                0x0000000000044b90                kw_serialize
                0x0000000000044cc0                kw_serialize_to_string
                0x0000000000044f30                kw_deserialize
                0x0000000000044fe0                kw_incref
                0x00000000000451a0                kw_decref
                0x0000000000045360                kw_has_key
                0x00000000000453a0                kw_set_path_delimiter
                0x00000000000453c0                kw_find_path
                0x0000000000045c30                kw_match_simple
                0x0000000000045cb0                kw_set_dict_value
                0x0000000000046360                kw_set_subdict_value
                0x0000000000046580                kw_delete
                0x00000000000466b0                kw_delete_subkey
                0x00000000000467f0                kw_find_str_in_list
                0x0000000000046870                kwid_find_record_in_list
                0x0000000000046b10                kw_find_json_in_list
                0x0000000000046c70                kw_select
                0x0000000000046fe0                kw_collect
                0x0000000000047200                kw_get_dict
                0x0000000000047760                kw_get_list
                0x0000000000047cb0                kw_get_list_value
                0x0000000000047eb0                kw_get_int
                0x0000000000048460                kw_get_real
                0x0000000000048a00                kw_get_bool
                0x0000000000049020                kw_get_str
                0x0000000000049580                kw_get_dict_value
                0x0000000000049a40                kw_get_subdict_value
                0x000000000004a010                kw_update_except
                0x000000000004a0c0                kw_duplicate
                0x000000000004a150                kw_clone_by_path
                0x000000000004a510                kw_clone_by_keys
                0x000000000004ac40                kw_clone_by_not_keys
                0x000000000004b410                kw_pop
                0x000000000004b520                kw_delete_private_keys
                0x000000000004b5d0                kw_delete_metadata_keys
                0x000000000004b680                kwid_compare_records
                0x000000000004bf40                kwid_compare_lists
                0x000000000004c840                kw_walk
                0x000000000004c8b0                kw_collapse
                0x000000000004c970                kwid_get
                0x000000000004ca90                kwid_new_list
                0x000000000004cd00                kwid_new_dict
                0x000000000004d090                kw_filter_private
                0x000000000004d190                kw_filter_metadata
                0x000000000004d290                kw_size
                0x000000000004d2c0                kwjr_get
                0x000000000004d960                kwid_get_ids
                0x000000000004db10                kw_has_word
                0x000000000004dd60                kwid_match_id
                0x000000000004dfe0                kwid_match_nid
 *fill*         0x000000000004e26e        0x2 
 .text          0x000000000004e270     0x1d45 /yuneta/development/outputs/lib/libyunetas-gobj.a(command_parser.c.o)
                0x000000000004e7b0                command_parser
                0x000000000004f7e0                gobj_build_cmds_doc
                0x000000000004fee0                build_command_response
 *fill*         0x000000000004ffb5        0xb 
 .text          0x000000000004ffc0      0x895 /yuneta/development/outputs/lib/libyunetas-gobj.a(stats_parser.c.o)
                0x0000000000050520                build_stats
                0x00000000000506d0                stats_parser
                0x0000000000050780                build_stats_response
 *fill*         0x0000000000050855        0xb 
 .text          0x0000000000050860      0xbcd /yuneta/development/outputs/lib/libyunetas-gobj.a(json_config.c.o)
                0x00000000000511a0                json_config
 *fill*         0x000000000005142d        0x3 
 .text          0x0000000000051430      0x997 /yuneta/development/outputs/lib/libyunetas-gobj.a(json_replace_vars.c.o)
                0x0000000000051860                json_replace_var_custom
                0x0000000000051db0                json_replace_var
 *fill*         0x0000000000051dc7        0x9 
 .text          0x0000000000051dd0      0xe99 /yuneta/development/outputs/lib/libyunetas-gobj.a(rotatory.c.o)
                0x0000000000051dd0                rotatory_end
                0x0000000000051e70                rotatory_start_up
                0x0000000000051ee0                rotatory_open
                0x00000000000522e0                rotatory_close
                0x0000000000052380                rotatory_subscribe2newfile
                0x00000000000523a0                rotatory_trunk
                0x00000000000524b0                rotatory_flush
                0x0000000000052a60                rotatory_write
                0x0000000000052b50                rotatory_fwrite
                0x0000000000052c60                rotatory_path
 .text          0x0000000000052c69        0x0 /yuneta/development/outputs/lib/libyunetas-gobj.a(g_ev_kernel.c.o)
 *fill*         0x0000000000052c69        0x7 
 .text          0x0000000000052c70     0x42ab /yuneta/development/outputs/lib/libyunetas-gobj.a(00_http_parser.c.o)
                0x0000000000053010                http_message_needs_eof
                0x0000000000053080                http_should_keep_alive
                0x0000000000053110                http_parser_execute
                0x0000000000056310                http_method_str
                0x0000000000056330                http_status_str
                0x0000000000056530                http_parser_init
                0x0000000000056580                http_parser_settings_init
                0x00000000000565a0                http_errno_name
                0x00000000000565c0                http_errno_description
                0x00000000000565e0                http_parser_url_init
                0x00000000000565f0                http_parser_parse_url
                0x0000000000056eb0                http_parser_pause
                0x0000000000056ee0                http_body_is_final
                0x0000000000056f00                http_parser_version
                0x0000000000056f10                http_parser_set_max_header_size
 *fill*         0x0000000000056f1b        0x5 
 .text          0x0000000000056f20      0x857 /yuneta/development/outputs/lib/libyunetas-gobj.a(dl_list.c.o)
                0x0000000000056f20                dl_init
                0x0000000000056f60                dl_insert
                0x0000000000057020                dl_add
                0x00000000000570e0                dl_find
                0x0000000000057110                dl_nfind
                0x0000000000057160                dl_delete
                0x0000000000057320                dl_delete_item
                0x0000000000057470                dl_flush
 *fill*         0x0000000000057777        0x9 
 .text          0x0000000000057780      0xd45 /yuneta/development/outputs_ext/lib/liburing.a(setup.ol)
                0x0000000000057780                io_uring_unmap_rings
                0x00000000000577c0                io_uring_setup_ring_pointers
                0x00000000000578b0                io_uring_mmap
                0x0000000000057b20                __io_uring_queue_init_params
                0x00000000000580f0                io_uring_queue_init_mem
                0x0000000000058180                io_uring_queue_init_params
                0x0000000000058200                io_uring_memory_size_params
                0x00000000000582f0                io_uring_memory_size
                0x00000000000583a0                io_uring_setup_buf_ring
                0x0000000000058490                io_uring_free_buf_ring
 *fill*         0x00000000000584c5        0xb 
 .text          0x00000000000584d0     0x10f5 /yuneta/development/outputs_ext/lib/liburing.a(queue.ol)
                0x0000000000058940                __io_uring_get_cqe
                0x0000000000058980                io_uring_get_events
                0x00000000000589c0                io_uring_peek_batch_cqe
                0x0000000000058d40                io_uring_wait_cqes
                0x0000000000058e20                io_uring_wait_cqes_min_timeout
                0x0000000000058ea0                io_uring_submit_and_wait_reg
                0x0000000000058f20                io_uring_submit_and_wait_min_timeout
                0x0000000000059070                io_uring_submit_and_wait_timeout
                0x00000000000591a0                io_uring_wait_cqe_timeout
                0x0000000000059280                io_uring_submit
                0x0000000000059370                io_uring_submit_and_wait
                0x0000000000059480                io_uring_submit_and_get_events
                0x0000000000059510                io_uring_get_sqe
                0x0000000000059590                __io_uring_sqring_wait
 *fill*         0x00000000000595c5        0xb 
 .text          0x00000000000595d0     0x1016 /yuneta/development/outputs_ext/lib/liburing.a(register.ol)
                0x00000000000595d0                io_uring_register_buffers_update_tag
                0x0000000000059630                io_uring_register_buffers_tags
                0x0000000000059690                io_uring_register_buffers_sparse
                0x00000000000596f0                io_uring_register_buffers
                0x0000000000059730                io_uring_unregister_buffers
                0x0000000000059770                io_uring_register_files_update_tag
                0x00000000000597d0                io_uring_register_files_update
                0x0000000000059820                io_uring_register_files_sparse
                0x00000000000598f0                io_uring_register_files_tags
                0x00000000000599c0                io_uring_register_files
                0x0000000000059a70                io_uring_unregister_files
                0x0000000000059ab0                io_uring_register_eventfd
                0x0000000000059af0                io_uring_unregister_eventfd
                0x0000000000059b30                io_uring_register_eventfd_async
                0x0000000000059b70                io_uring_register_probe
                0x0000000000059bb0                io_uring_register_personality
                0x0000000000059bf0                io_uring_unregister_personality
                0x0000000000059c30                io_uring_register_restrictions
                0x0000000000059c70                io_uring_enable_rings
                0x0000000000059cb0                io_uring_register_iowq_aff
                0x0000000000059d00                io_uring_unregister_iowq_aff
                0x0000000000059d40                io_uring_register_iowq_max_workers
                0x0000000000059d80                io_uring_register_ring_fd
                0x0000000000059e20                io_uring_unregister_ring_fd
                0x0000000000059eb0                io_uring_close_ring_fd
                0x0000000000059f10                io_uring_register_buf_ring
                0x0000000000059f50                io_uring_unregister_buf_ring
                0x0000000000059fb0                io_uring_buf_ring_head
                0x000000000005a020                io_uring_register_sync_cancel
                0x000000000005a060                io_uring_register_file_alloc_range
                0x000000000005a0b0                io_uring_register_napi
                0x000000000005a0f0                io_uring_unregister_napi
                0x000000000005a130                io_uring_register_clock
                0x000000000005a170                __io_uring_clone_buffers_offset
                0x000000000005a220                io_uring_clone_buffers_offset
                0x000000000005a2d0                io_uring_clone_buffers
                0x000000000005a360                __io_uring_clone_buffers
                0x000000000005a400                io_uring_register_ifq
                0x000000000005a440                io_uring_resize_rings
                0x000000000005a560                io_uring_register_wait_reg
                0x000000000005a570                io_uring_register_region
                0x000000000005a5b0                io_uring_set_iowait
 *fill*         0x000000000005a5e6        0xa 
 .text          0x000000000005a5f0       0x8c /yuneta/development/outputs_ext/lib/liburing.a(nolibc.ol)
                0x000000000005a5f0                __uring_memset
                0x000000000005a620                __uring_malloc
                0x000000000005a660                __uring_free
 *fill*         0x000000000005a67c        0x4 
 .text          0x000000000005a680     0x1385 /yuneta/development/outputs_ext/lib/libjansson.a(dump.c.o)
                0x000000000005b7c0                json_dump_callback
                0x000000000005b860                json_dumps
                0x000000000005b900                json_dumpb
                0x000000000005b960                json_dumpf
                0x000000000005b980                json_dump_file
                0x000000000005b9e0                json_dumpfd
 *fill*         0x000000000005ba05        0xb 
 .text          0x000000000005ba10      0xcb1 /yuneta/development/outputs_ext/lib/libjansson.a(hashtable.c.o)
                0x000000000005be10                hashtable_init
                0x000000000005bea0                hashtable_close
                0x000000000005bf20                hashtable_set
                0x000000000005c200                hashtable_get
                0x000000000005c2c0                hashtable_del
                0x000000000005c450                hashtable_clear
                0x000000000005c550                hashtable_iter_at
                0x000000000005c610                hashtable_iter_next
                0x000000000005c630                hashtable_iter
                0x000000000005c640                hashtable_iter_key
                0x000000000005c650                hashtable_iter_key_len
                0x000000000005c660                hashtable_iter_value
                0x000000000005c670                hashtable_iter_set
 *fill*         0x000000000005c6c1        0xf 
 .text          0x000000000005c6d0      0x120 /yuneta/development/outputs_ext/lib/libjansson.a(hashtable_seed.c.o)
                0x000000000005c6d0                json_object_seed
 .text          0x000000000005c7f0     0x2121 /yuneta/development/outputs_ext/lib/libjansson.a(load.c.o)
                0x000000000005e190                json_loads
                0x000000000005e2e0                json_loadb
                0x000000000005e450                json_loadf
                0x000000000005e5a0                json_loadfd
                0x000000000005e700                json_load_file
                0x000000000005e7c0                json_load_callback
 *fill*         0x000000000005e911        0xf 
 .text          0x000000000005e920       0xe3 /yuneta/development/outputs_ext/lib/libjansson.a(memory.c.o)
                0x000000000005e920                jsonp_malloc
                0x000000000005e940                jsonp_free
                0x000000000005e960                jsonp_strndup
                0x000000000005e9a0                jsonp_strdup
                0x000000000005e9c0                json_set_alloc_funcs
                0x000000000005e9e0                json_get_alloc_funcs
 *fill*         0x000000000005ea03        0xd 
 .text          0x000000000005ea10     0x23ec /yuneta/development/outputs_ext/lib/libjansson.a(pack_unpack.c.o)
                0x00000000000607a0                json_vpack_ex
                0x0000000000060950                json_pack_ex
                0x0000000000060a00                json_pack
                0x0000000000060ad0                json_vunpack_ex
                0x0000000000060c90                json_unpack_ex
                0x0000000000060d40                json_unpack
 *fill*         0x0000000000060dfc        0x4 
 .text          0x0000000000060e00      0x1d3 /yuneta/development/outputs_ext/lib/libjansson.a(strbuffer.c.o)
                0x0000000000060e00                strbuffer_init
                0x0000000000060e40                strbuffer_close
                0x0000000000060e70                strbuffer_clear
                0x0000000000060e90                strbuffer_value
                0x0000000000060ea0                strbuffer_steal_value
                0x0000000000060eb0                strbuffer_append_bytes
                0x0000000000060f80                strbuffer_append_byte
                0x0000000000060fb0                strbuffer_pop
 *fill*         0x0000000000060fd3        0xd 
 .text          0x0000000000060fe0      0x40f /yuneta/development/outputs_ext/lib/libjansson.a(strconv.c.o)
                0x0000000000060fe0                jsonp_strtod
                0x00000000000610e0                jsonp_dtostr
 *fill*         0x00000000000613ef        0x1 
 .text          0x00000000000613f0      0x341 /yuneta/development/outputs_ext/lib/libjansson.a(utf.c.o)
                0x00000000000613f0                utf8_encode
                0x00000000000614e0                utf8_check_first
                0x0000000000061530                utf8_check_full
                0x00000000000615f0                utf8_iterate
                0x00000000000616a0                utf8_check_string
 *fill*         0x0000000000061731        0xf 
 .text          0x0000000000061740     0x1fb7 /yuneta/development/outputs_ext/lib/libjansson.a(value.c.o)
                0x0000000000061740                json_object
                0x00000000000617b0                json_object_size
                0x00000000000617e0                json_object_getn
                0x0000000000061810                json_object_get
                0x0000000000061850                json_object_deln
                0x0000000000061880                json_object_del
                0x00000000000618c0                json_object_clear
                0x00000000000618f0                json_object_iter
                0x0000000000061920                json_object_iter_at
                0x0000000000061980                json_object_iter_next
                0x00000000000619b0                json_object_iter_key
                0x00000000000619d0                json_object_iter_key_len
                0x00000000000619f0                json_object_iter_value
                0x0000000000061a10                json_object_key_to_iter
                0x0000000000061a30                json_array
                0x0000000000061aa0                json_array_size
                0x0000000000061ac0                json_array_get
                0x0000000000061af0                json_array_extend
                0x0000000000061c30                json_string_nocheck
                0x0000000000061cb0                json_stringn_nocheck
                0x0000000000061d20                jsonp_stringn_nocheck_own
                0x0000000000061d80                json_stringn
                0x0000000000061dd0                json_string
                0x0000000000061e00                json_string_value
                0x0000000000061e20                json_string_length
                0x0000000000061e40                json_string_setn_nocheck
                0x0000000000061ea0                json_string_set_nocheck
                0x0000000000061ee0                json_string_setn
                0x0000000000061f30                json_string_set
                0x0000000000061f70                json_vsprintf
                0x0000000000062070                json_sprintf
                0x0000000000062130                json_integer
                0x0000000000062160                json_integer_value
                0x0000000000062180                json_integer_set
                0x00000000000621a0                json_real
                0x0000000000062220                json_real_value
                0x0000000000062240                json_real_set
                0x0000000000062280                json_number_value
                0x00000000000622d0                json_true
                0x00000000000622e0                json_false
                0x00000000000622f0                json_null
                0x0000000000062300                jsonp_loop_check
                0x0000000000062390                json_delete
                0x0000000000062490                json_array_clear
                0x0000000000062510                json_array_remove
                0x00000000000625e0                json_object_iter_set_new
                0x0000000000062650                json_object_setn_new_nocheck
                0x00000000000626c0                json_object_update_missing
                0x00000000000627c0                json_object_set_new_nocheck
                0x0000000000062820                json_object_setn_new
                0x00000000000628b0                json_object_set_new
                0x0000000000062910                json_object_update
                0x00000000000629f0                json_object_update_existing
                0x0000000000062ae0                do_object_update_recursive
                0x0000000000062c80                json_object_update_recursive
                0x0000000000062d00                json_array_set_new
                0x0000000000062db0                json_array_insert_new
                0x0000000000062f20                json_array_append_new
                0x0000000000063020                json_equal
                0x0000000000063210                json_copy
                0x00000000000633c0                do_deep_copy
                0x0000000000063690                json_deep_copy
 *fill*         0x00000000000636f7        0x9 
 .text          0x0000000000063700     0x76f2 /yuneta/development/outputs_ext/lib/libjansson.a(dtoa.c.o)
                0x0000000000064ab0                gethex
                0x0000000000065970                strtod__unused
                0x0000000000068a80                freedtoa
                0x0000000000068af0                dtoa_r
                0x000000000006ad90                dtoa
 *fill*         0x000000000006adf2        0xe 
 .text          0x000000000006ae00      0x1da /yuneta/development/outputs_ext/lib/libjansson.a(error.c.o)
                0x000000000006ae00                jsonp_error_set_source
                0x000000000006ae90                jsonp_error_init
                0x000000000006aec0                jsonp_error_vset
                0x000000000006af30                jsonp_error_set
 *fill*         0x000000000006afda        0x6 
 .text          0x000000000006afe0    0x10d62 /yuneta/development/outputs_ext/lib/libpcre2-8.a(pcre2_compile.c.o)
                0x00000000000737c0                pcre2_code_copy_8
                0x0000000000073830                pcre2_code_copy_with_tables_8
                0x0000000000073900                pcre2_code_free_8
                0x0000000000073970                _pcre2_check_escape_8
                0x000000000007a6d0                pcre2_compile_8
 *fill*         0x000000000007bd42        0xe 
 .text          0x000000000007bd50     0x4acd /yuneta/development/outputs_ext/lib/libpcre2-8.a(pcre2_compile_class.c.o)
                0x000000000007c800                _pcre2_update_classbits_8
                0x000000000007cf90                _pcre2_compile_class_not_nested_8
                0x00000000000804f0                _pcre2_compile_class_nested_8
 *fill*         0x000000000008081d        0x3 
 .text          0x0000000000080820      0x6f6 /yuneta/development/outputs_ext/lib/libpcre2-8.a(pcre2_context.c.o)
                0x0000000000080840                _pcre2_memctl_malloc_8
                0x00000000000808b0                pcre2_general_context_create_8
                0x0000000000080900                pcre2_compile_context_create_8
                0x00000000000809e0                pcre2_match_context_create_8
                0x0000000000080ae0                pcre2_convert_context_create_8
                0x0000000000080b60                pcre2_general_context_copy_8
                0x0000000000080b90                pcre2_compile_context_copy_8
                0x0000000000080be0                pcre2_match_context_copy_8
                0x0000000000080c40                pcre2_convert_context_copy_8
                0x0000000000080c70                pcre2_general_context_free_8
                0x0000000000080c90                pcre2_compile_context_free_8
                0x0000000000080cb0                pcre2_match_context_free_8
                0x0000000000080cd0                pcre2_convert_context_free_8
                0x0000000000080cf0                pcre2_set_character_tables_8
                0x0000000000080d00                pcre2_set_bsr_8
                0x0000000000080d20                pcre2_set_max_pattern_length_8
                0x0000000000080d30                pcre2_set_max_pattern_compiled_length_8
                0x0000000000080d40                pcre2_set_newline_8
                0x0000000000080d60                pcre2_set_max_varlookbehind_8
                0x0000000000080d70                pcre2_set_parens_nest_limit_8
                0x0000000000080d80                pcre2_set_compile_extra_options_8
                0x0000000000080d90                pcre2_set_compile_recursion_guard_8
                0x0000000000080da0                pcre2_set_optimize_8
                0x0000000000080e10                pcre2_set_callout_8
                0x0000000000080e20                pcre2_set_substitute_callout_8
                0x0000000000080e30                pcre2_set_substitute_case_callout_8
                0x0000000000080e40                pcre2_set_heap_limit_8
                0x0000000000080e50                pcre2_set_match_limit_8
                0x0000000000080e60                pcre2_set_depth_limit_8
                0x0000000000080e70                pcre2_set_offset_limit_8
                0x0000000000080e80                pcre2_set_recursion_limit_8
                0x0000000000080e90                pcre2_set_recursion_memory_management_8
                0x0000000000080ea0                pcre2_set_glob_separator_8
                0x0000000000080ec0                pcre2_set_glob_escape_8
 *fill*         0x0000000000080f16        0xa 
 .text          0x0000000000080f20      0x288 /yuneta/development/outputs_ext/lib/libpcre2-8.a(pcre2_find_bracket.c.o)
                0x0000000000080f20                _pcre2_find_bracket_8
 *fill*         0x00000000000811a8        0x8 
 .text          0x00000000000811b0    0x3e9d1 /yuneta/development/outputs_ext/lib/libpcre2-8.a(pcre2_jit_compile.c.o)
                0x00000000000bf450                pcre2_jit_compile_8
                0x00000000000bf630                pcre2_jit_match_8
                0x00000000000bf840                _pcre2_jit_free_rodata_8
                0x00000000000bf880                _pcre2_jit_free_8
                0x00000000000bf8f0                pcre2_jit_free_unused_memory_8
                0x00000000000bf980                pcre2_jit_stack_create_8
                0x00000000000bfaf0                pcre2_jit_stack_assign_8
                0x00000000000bfb10                pcre2_jit_stack_free_8
                0x00000000000bfb60                _pcre2_jit_get_target_8
                0x00000000000bfb70                _pcre2_jit_get_size_8
 *fill*         0x00000000000bfb81        0xf 
 .text          0x00000000000bfb90    0x15ba2 /yuneta/development/outputs_ext/lib/libpcre2-8.a(pcre2_match.c.o)
                0x00000000000d3ba0                pcre2_match_8
 *fill*         0x00000000000d5732        0xe 
 .text          0x00000000000d5740      0x129 /yuneta/development/outputs_ext/lib/libpcre2-8.a(pcre2_match_data.c.o)
                0x00000000000d5740                pcre2_match_data_create_8
                0x00000000000d5790                pcre2_match_data_create_from_pattern_8
                0x00000000000d57b0                pcre2_match_data_free_8
                0x00000000000d5800                pcre2_get_mark_8
                0x00000000000d5810                pcre2_get_ovector_pointer_8
                0x00000000000d5820                pcre2_get_ovector_count_8
                0x00000000000d5830                pcre2_get_startchar_8
                0x00000000000d5840                pcre2_get_match_data_size_8
                0x00000000000d5860                pcre2_get_match_data_heapframes_size_8
 *fill*         0x00000000000d5869        0x7 
 .text          0x00000000000d5870      0x505 /yuneta/development/outputs_ext/lib/libpcre2-8.a(pcre2_newline.c.o)
                0x00000000000d5870                _pcre2_is_newline_8
                0x00000000000d5af0                _pcre2_was_newline_8
 *fill*         0x00000000000d5d75        0xb 
 .text          0x00000000000d5d80       0x95 /yuneta/development/outputs_ext/lib/libpcre2-8.a(pcre2_ord2utf.c.o)
                0x00000000000d5d80                _pcre2_ord2utf_8
 *fill*         0x00000000000d5e15        0xb 
 .text          0x00000000000d5e20      0x725 /yuneta/development/outputs_ext/lib/libpcre2-8.a(pcre2_script_run.c.o)
                0x00000000000d5e20                _pcre2_script_run_8
 *fill*         0x00000000000d6545        0xb 
 .text          0x00000000000d6550      0x169 /yuneta/development/outputs_ext/lib/libpcre2-8.a(pcre2_string_utils.c.o)
                0x00000000000d6550                _pcre2_strcmp_8
                0x00000000000d6590                _pcre2_strcmp_c8_8
                0x00000000000d65d0                _pcre2_strncmp_8
                0x00000000000d6610                _pcre2_strncmp_c8_8
                0x00000000000d6650                _pcre2_strlen_8
                0x00000000000d6680                _pcre2_strcpy_c8_8
 *fill*         0x00000000000d66b9        0x7 
 .text          0x00000000000d66c0     0x256d /yuneta/development/outputs_ext/lib/libpcre2-8.a(pcre2_study.c.o)
                0x00000000000d87f0                _pcre2_study_8
 .text          0x00000000000d8c2d        0x0 /yuneta/development/outputs_ext/lib/libpcre2-8.a(pcre2_tables.c.o)
 .text          0x00000000000d8c2d        0x0 /yuneta/development/outputs_ext/lib/libpcre2-8.a(pcre2_ucd.c.o)
 *fill*         0x00000000000d8c2d        0x3 
 .text          0x00000000000d8c30      0x3c9 /yuneta/development/outputs_ext/lib/libpcre2-8.a(pcre2_valid_utf.c.o)
                0x00000000000d8c30                _pcre2_valid_utf_8
 *fill*         0x00000000000d8ff9        0x7 
 .text          0x00000000000d9000      0xe7c /yuneta/development/outputs_ext/lib/libpcre2-8.a(pcre2_xclass.c.o)
                0x00000000000d9000                _pcre2_xclass_8
                0x00000000000d9d50                _pcre2_eclass_8
 *fill*         0x00000000000d9e7c        0x4 
 .text          0x00000000000d9e80     0x2022 /yuneta/development/outputs_ext/lib/libpcre2-8.a(pcre2_auto_possess.c.o)
                0x00000000000db4f0                _pcre2_auto_possessify_8
 .text          0x00000000000dbea2        0x0 /yuneta/development/outputs_ext/lib/libpcre2-8.a(pcre2_chartables.c.o)
 *fill*         0x00000000000dbea2        0xe 
 .text          0x00000000000dbeb0       0x1f /yuneta/development/outputs_ext/lib/libpcre2-8.a(pcre2_chkdint.c.o)
                0x00000000000dbeb0                _pcre2_ckd_smul
 *fill*         0x00000000000dbecf        0x1 
 .text          0x00000000000dbed0      0x4c3 /yuneta/development/outputs_ext/lib/libpcre2-8.a(pcre2_extuni.c.o)
                0x00000000000dbed0                _pcre2_extuni_8
 *fill*         0x00000000000dc393        0xd 
 .text          0x00000000000dc3a0       0x94 /yuneta/development/outputs_ext/lib/libbacktrace.a(state.o)
                0x00000000000dc3a0                backtrace_create_state
 *fill*         0x00000000000dc434        0xc 
 .text          0x00000000000dc440      0x151 /yuneta/development/outputs_ext/lib/libbacktrace.a(backtrace.o)
                0x00000000000dc4f0                backtrace_full
 *fill*         0x00000000000dc591        0xf 
 .text          0x00000000000dc5a0      0x5cc /yuneta/development/outputs_ext/lib/libbacktrace.a(mmap.o)
                0x00000000000dc5a0                backtrace_free
                0x00000000000dc6e0                backtrace_alloc
                0x00000000000dc8b0                backtrace_vector_grow
                0x00000000000dc9d0                backtrace_vector_finish
                0x00000000000dc9f0                backtrace_vector_release
 *fill*         0x00000000000dcb6c        0x4 
 .text          0x00000000000dcb70      0x301 /yuneta/development/outputs_ext/lib/libbacktrace.a(fileline.o)
                0x00000000000dcd80                backtrace_pcinfo
                0x00000000000dcde0                backtrace_syminfo
                0x00000000000dce40                backtrace_syminfo_to_full_callback
                0x00000000000dce60                backtrace_syminfo_to_full_error_callback
 *fill*         0x00000000000dce71        0xf 
 .text          0x00000000000dce80       0xfc /yuneta/development/outputs_ext/lib/libbacktrace.a(posix.o)
                0x00000000000dce80                backtrace_open
                0x00000000000dcf30                backtrace_close
 *fill*         0x00000000000dcf7c        0x4 
 .text          0x00000000000dcf80     0xa6cd /yuneta/development/outputs_ext/lib/libbacktrace.a(elf.o)
                0x00000000000e7250                backtrace_uncompress_zdebug
                0x00000000000e73e0                backtrace_uncompress_zstd
                0x00000000000e7470                backtrace_uncompress_lzma
                0x00000000000e7480                backtrace_initialize
 *fill*         0x00000000000e764d        0x3 
 .text          0x00000000000e7650      0x10c /yuneta/development/outputs_ext/lib/libbacktrace.a(mmapio.o)
                0x00000000000e7650                backtrace_get_view
                0x00000000000e7710                backtrace_release_view
 *fill*         0x00000000000e775c        0x4 
 .text          0x00000000000e7760     0x885e /yuneta/development/outputs_ext/lib/libbacktrace.a(dwarf.o)
                0x00000000000ee6a0                backtrace_dwarf_add
 *fill*         0x00000000000effbe        0x2 
 .text          0x00000000000effc0      0x6a4 /yuneta/development/outputs_ext/lib/libbacktrace.a(sort.o)
                0x00000000000effc0                backtrace_qsort
 *fill*         0x00000000000f0664        0xc 
 .text          0x00000000000f0670     0x3bc0 /usr/lib/gcc/x86_64-linux-gnu/13/libgcc_eh.a(unwind-dw2.o)
                0x00000000000f35c0                _Unwind_GetGR
                0x00000000000f3600                _Unwind_GetCFA
                0x00000000000f3610                _Unwind_SetGR
                0x00000000000f3660                _Unwind_GetIP
                0x00000000000f3670                _Unwind_GetIPInfo
                0x00000000000f3690                _Unwind_SetIP
                0x00000000000f36a0                _Unwind_GetLanguageSpecificData
                0x00000000000f36b0                _Unwind_GetRegionStart
                0x00000000000f36c0                _Unwind_FindEnclosingFunction
                0x00000000000f36f0                _Unwind_GetDataRelBase
                0x00000000000f3700                _Unwind_GetTextRelBase
                0x00000000000f3710                __frame_state_for
                0x00000000000f3800                _Unwind_RaiseException
                0x00000000000f3ba0                _Unwind_ForcedUnwind
                0x00000000000f3db0                _Unwind_Resume
                0x00000000000f3fc0                _Unwind_Resume_or_Rethrow
                0x00000000000f4110                _Unwind_DeleteException
                0x00000000000f4140                _Unwind_Backtrace
 .text          0x00000000000f4230     0x32cc /usr/lib/gcc/x86_64-linux-gnu/13/libgcc_eh.a(unwind-dw2-fde-dip.o)
                0x00000000000f6530                __register_frame_info_bases
                0x00000000000f65b0                __register_frame_info
                0x00000000000f6630                __register_frame
                0x00000000000f66c0                __register_frame_info_table_bases
                0x00000000000f6730                __register_frame_info_table
                0x00000000000f67b0                __register_frame_table
                0x00000000000f6840                __deregister_frame_info_bases
                0x00000000000f6860                __deregister_frame_info
                0x00000000000f6880                __deregister_frame
                0x00000000000f68b0                _Unwind_Find_FDE
 .text          0x00000000000f74fc        0x0 /usr/lib/gcc/x86_64-linux-gnu/13/crtendS.o
 .text          0x00000000000f74fc        0x0 /usr/local/musl/lib/crtn.o
 *(.gnu.warning)

.fini           0x00000000000f74fc        0x3
 *(SORT_NONE(.fini))
 .fini          0x00000000000f74fc        0x1 /usr/local/musl/lib/crti.o
                0x00000000000f74fc                _fini
 .fini          0x00000000000f74fd        0x2 /usr/local/musl/lib/crtn.o
                [!provide]                        PROVIDE (__etext = .)
                [!provide]                        PROVIDE (_etext = .)
                [!provide]                        PROVIDE (etext = .)
                0x00000000000f8000                . = ALIGN (CONSTANT (MAXPAGESIZE))
                0x00000000000f8000                . = SEGMENT_START ("rodata-segment", (ALIGN (CONSTANT (MAXPAGESIZE)) + (. & (CONSTANT (MAXPAGESIZE) - 0x1))))

.rodata         0x00000000000f8000    0x368d0
 *(.rodata .rodata.* .gnu.linkonce.r.*)
 .rodata        0x00000000000f8000      0x10e CMakeFiles/fs_watcher.dir/src/main_fs_watcher.c.o
 .rodata.str1.1
                0x00000000000f810e     0x4d7d /yuneta/development/outputs/lib/libtimeranger2.a(fs_watcher.c.o)
                                        0x60c (size before relaxing)
 *fill*         0x00000000000fce8b        0x5 
 .rodata.str1.8
                0x00000000000fce90     0x32c3 /yuneta/development/outputs/lib/libtimeranger2.a(fs_watcher.c.o)
                                        0x1bd (size before relaxing)
 *fill*         0x0000000000100153        0xd 
 .rodata        0x0000000000100160      0x128 /yuneta/development/outputs/lib/libtimeranger2.a(fs_watcher.c.o)
 .rodata.str1.1
                0x0000000000100288      0x7fd /yuneta/development/outputs/lib/libyev_loop.a(yev_loop.c.o)
 .rodata.str1.8
                0x0000000000100288      0x73a /yuneta/development/outputs/lib/libyev_loop.a(yev_loop.c.o)
 *fill*         0x0000000000100288        0x8 
 .rodata        0x0000000000100290     0x1360 /yuneta/development/outputs/lib/libyev_loop.a(yev_loop.c.o)
 .rodata.cst8   0x00000000001015f0      0x1a0 /yuneta/development/outputs/lib/libyev_loop.a(yev_loop.c.o)
                                         0x10 (size before relaxing)
 .rodata.str1.1
                0x0000000000101790     0x1d13 /yuneta/development/outputs/lib/libyunetas-gobj.a(gobj.c.o)
 *fill*         0x0000000000101790       0x10 
 .rodata        0x00000000001017a0     0x105f /yuneta/development/outputs/lib/libyunetas-gobj.a(gobj.c.o)
 .rodata.str1.8
                0x00000000001027ff      0xd3e /yuneta/development/outputs/lib/libyunetas-gobj.a(gobj.c.o)
 .rodata.str1.1
                0x00000000001027ff       0xad /yuneta/development/outputs/lib/libyunetas-gobj.a(gbmem.c.o)
 *fill*         0x00000000001027ff        0x1 
 .rodata        0x0000000000102800       0x2c /yuneta/development/outputs/lib/libyunetas-gobj.a(gbmem.c.o)
 .rodata.str1.1
                0x000000000010282c      0x337 /yuneta/development/outputs/lib/libyunetas-gobj.a(gbuffer.c.o)
 .rodata.str1.8
                0x000000000010282c       0xa4 /yuneta/development/outputs/lib/libyunetas-gobj.a(gbuffer.c.o)
 *fill*         0x000000000010282c       0x14 
 .rodata        0x0000000000102840      0x201 /yuneta/development/outputs/lib/libyunetas-gobj.a(gbuffer.c.o)
 .rodata.str1.1
                0x0000000000102a41      0x2fc /yuneta/development/outputs/lib/libyunetas-gobj.a(glogger.c.o)
 *fill*         0x0000000000102a41       0x1f 
 .rodata        0x0000000000102a60      0x2c2 /yuneta/development/outputs/lib/libyunetas-gobj.a(glogger.c.o)
 .rodata.str1.8
                0x0000000000102d22      0x109 /yuneta/development/outputs/lib/libyunetas-gobj.a(glogger.c.o)
 .rodata.str1.8
                0x0000000000102d22      0x105 /yuneta/development/outputs/lib/libyunetas-gobj.a(log_udp_handler.c.o)
 .rodata.str1.1
                0x0000000000102d22       0xed /yuneta/development/outputs/lib/libyunetas-gobj.a(log_udp_handler.c.o)
 .rodata.str1.1
                0x0000000000102d22      0xa23 /yuneta/development/outputs/lib/libyunetas-gobj.a(helpers.c.o)
 .rodata.str1.8
                0x0000000000102d22      0x689 /yuneta/development/outputs/lib/libyunetas-gobj.a(helpers.c.o)
 *fill*         0x0000000000102d22       0x1e 
 .rodata        0x0000000000102d40      0x4b0 /yuneta/development/outputs/lib/libyunetas-gobj.a(helpers.c.o)
 .rodata.cst16  0x00000000001031f0      0x1b0 /yuneta/development/outputs/lib/libyunetas-gobj.a(helpers.c.o)
                                         0x70 (size before relaxing)
 .rodata.cst8   0x00000000001033a0       0x20 /yuneta/development/outputs/lib/libyunetas-gobj.a(helpers.c.o)
 .rodata.str1.1
                0x00000000001033a0      0x4c9 /yuneta/development/outputs/lib/libyunetas-gobj.a(kwid.c.o)
 .rodata        0x00000000001033a0      0x3d3 /yuneta/development/outputs/lib/libyunetas-gobj.a(kwid.c.o)
 .rodata.str1.8
                0x0000000000103773      0x369 /yuneta/development/outputs/lib/libyunetas-gobj.a(kwid.c.o)
 .rodata.cst8   0x0000000000103773        0x8 /yuneta/development/outputs/lib/libyunetas-gobj.a(kwid.c.o)
 .rodata.str1.1
                0x0000000000103773      0x18b /yuneta/development/outputs/lib/libyunetas-gobj.a(command_parser.c.o)
 .rodata.str1.8
                0x0000000000103773      0x229 /yuneta/development/outputs/lib/libyunetas-gobj.a(command_parser.c.o)
 *fill*         0x0000000000103773        0x5 
 .rodata        0x0000000000103778       0x5d /yuneta/development/outputs/lib/libyunetas-gobj.a(command_parser.c.o)
 .rodata.str1.1
                0x00000000001037d5       0x2b /yuneta/development/outputs/lib/libyunetas-gobj.a(stats_parser.c.o)
 .rodata.str1.1
                0x00000000001037d5      0x193 /yuneta/development/outputs/lib/libyunetas-gobj.a(json_config.c.o)
 .rodata.str1.8
                0x00000000001037d5      0x12a /yuneta/development/outputs/lib/libyunetas-gobj.a(json_config.c.o)
 *fill*         0x00000000001037d5        0x3 
 .rodata        0x00000000001037d8        0xf /yuneta/development/outputs/lib/libyunetas-gobj.a(json_config.c.o)
 .rodata.str1.1
                0x00000000001037e7       0x68 /yuneta/development/outputs/lib/libyunetas-gobj.a(json_replace_vars.c.o)
 .rodata.str1.8
                0x00000000001037e7       0x44 /yuneta/development/outputs/lib/libyunetas-gobj.a(json_replace_vars.c.o)
 *fill*         0x00000000001037e7        0x9 
 .rodata        0x00000000001037f0       0x18 /yuneta/development/outputs/lib/libyunetas-gobj.a(json_replace_vars.c.o)
 .rodata.str1.8
                0x0000000000103808      0x263 /yuneta/development/outputs/lib/libyunetas-gobj.a(rotatory.c.o)
 .rodata.str1.1
                0x0000000000103808       0x6c /yuneta/development/outputs/lib/libyunetas-gobj.a(rotatory.c.o)
 .rodata.str1.1
                0x0000000000103808      0x162 /yuneta/development/outputs/lib/libyunetas-gobj.a(g_ev_kernel.c.o)
 *fill*         0x0000000000103808       0x18 
 .rodata        0x0000000000103820      0xba0 /yuneta/development/outputs/lib/libyunetas-gobj.a(00_http_parser.c.o)
 .rodata.str1.1
                0x00000000001043c0      0x900 /yuneta/development/outputs/lib/libyunetas-gobj.a(00_http_parser.c.o)
 .rodata.str1.8
                0x00000000001043c0      0x2b6 /yuneta/development/outputs/lib/libyunetas-gobj.a(00_http_parser.c.o)
 .rodata.str1.8
                0x00000000001043c0       0x97 /yuneta/development/outputs/lib/libyunetas-gobj.a(dl_list.c.o)
 .rodata.str1.1
                0x00000000001043c0       0x71 /yuneta/development/outputs/lib/libyunetas-gobj.a(dl_list.c.o)
 .rodata        0x00000000001043c0       0x3c /yuneta/development/outputs/lib/libyunetas-gobj.a(dl_list.c.o)
 .rodata.cst16  0x00000000001043fc       0x10 /yuneta/development/outputs/lib/libyunetas-gobj.a(dl_list.c.o)
 .rodata.cst16  0x00000000001043fc       0x20 /yuneta/development/outputs_ext/lib/liburing.a(setup.ol)
 .rodata.cst16  0x00000000001043fc       0x30 /yuneta/development/outputs_ext/lib/liburing.a(queue.ol)
 .rodata.cst8   0x00000000001043fc       0x18 /yuneta/development/outputs_ext/lib/liburing.a(queue.ol)
 .rodata.str1.1
                0x00000000001043fc       0x58 /yuneta/development/outputs_ext/lib/libjansson.a(dump.c.o)
 *fill*         0x00000000001043fc        0x4 
 .rodata        0x0000000000104400       0xe1 /yuneta/development/outputs_ext/lib/libjansson.a(dump.c.o)
 *fill*         0x00000000001044e1        0x3 
 .rodata        0x00000000001044e4       0x9c /yuneta/development/outputs_ext/lib/libjansson.a(hashtable.c.o)
 .rodata.str1.1
                0x0000000000104580        0xd /yuneta/development/outputs_ext/lib/libjansson.a(hashtable_seed.c.o)
 .rodata.str1.1
                0x0000000000104580      0x224 /yuneta/development/outputs_ext/lib/libjansson.a(load.c.o)
 .rodata.str1.8
                0x0000000000104580       0x75 /yuneta/development/outputs_ext/lib/libjansson.a(load.c.o)
 .rodata        0x0000000000104580       0x78 /yuneta/development/outputs_ext/lib/libjansson.a(load.c.o)
 .rodata.cst8   0x00000000001045f8        0x8 /yuneta/development/outputs_ext/lib/libjansson.a(load.c.o)
 .rodata.str1.1
                0x00000000001045f8      0x275 /yuneta/development/outputs_ext/lib/libjansson.a(pack_unpack.c.o)
 .rodata.str1.8
                0x00000000001045f8      0x149 /yuneta/development/outputs_ext/lib/libjansson.a(pack_unpack.c.o)
 .rodata        0x00000000001045f8      0x1b4 /yuneta/development/outputs_ext/lib/libjansson.a(pack_unpack.c.o)
 .rodata.cst16  0x00000000001047ac       0x10 /yuneta/development/outputs_ext/lib/libjansson.a(strbuffer.c.o)
 .rodata.str1.1
                0x00000000001047ac        0x9 /yuneta/development/outputs_ext/lib/libjansson.a(strconv.c.o)
 .rodata.cst8   0x00000000001047ac       0x18 /yuneta/development/outputs_ext/lib/libjansson.a(strconv.c.o)
 .rodata.cst4   0x00000000001047ac        0x4 /yuneta/development/outputs_ext/lib/libjansson.a(utf.c.o)
 .rodata.str1.1
                0x00000000001047b0        0x4 /yuneta/development/outputs_ext/lib/libjansson.a(value.c.o)
 .rodata        0x00000000001047b0       0x54 /yuneta/development/outputs_ext/lib/libjansson.a(value.c.o)
 .rodata.cst16  0x0000000000104804       0x20 /yuneta/development/outputs_ext/lib/libjansson.a(value.c.o)
 .rodata.cst8   0x0000000000104804        0x8 /yuneta/development/outputs_ext/lib/libjansson.a(value.c.o)
 .rodata.str1.1
                0x0000000000104804       0x19 /yuneta/development/outputs_ext/lib/libjansson.a(dtoa.c.o)
 *fill*         0x0000000000104804       0x1c 
 .rodata        0x0000000000104820     0x3e70 /yuneta/development/outputs_ext/lib/libjansson.a(dtoa.c.o)
 .rodata.cst8   0x0000000000108690       0xb8 /yuneta/development/outputs_ext/lib/libjansson.a(dtoa.c.o)
 .rodata.cst16  0x0000000000108690       0x10 /yuneta/development/outputs_ext/lib/libjansson.a(dtoa.c.o)
 *fill*         0x0000000000108690       0x10 
 .rodata        0x00000000001086a0     0x1709 /yuneta/development/outputs_ext/lib/libpcre2-8.a(pcre2_compile.c.o)
                0x00000000001097e0                _pcre2_posix_class_maps8
 .rodata.str1.1
                0x0000000000109da9      0x149 /yuneta/development/outputs_ext/lib/libpcre2-8.a(pcre2_compile.c.o)
 *fill*         0x0000000000109da9        0x1 
 .rodata.cst2   0x0000000000109daa        0x8 /yuneta/development/outputs_ext/lib/libpcre2-8.a(pcre2_compile.c.o)
                                          0x4 (size before relaxing)
 .rodata.cst8   0x0000000000109db2       0x48 /yuneta/development/outputs_ext/lib/libpcre2-8.a(pcre2_compile.c.o)
 *fill*         0x0000000000109db2        0x6 
 .rodata        0x0000000000109db8      0x114 /yuneta/development/outputs_ext/lib/libpcre2-8.a(pcre2_compile_class.c.o)
 .rodata.cst8   0x0000000000109ecc       0x10 /yuneta/development/outputs_ext/lib/libpcre2-8.a(pcre2_compile_class.c.o)
 .rodata.cst16  0x0000000000109ecc       0x20 /yuneta/development/outputs_ext/lib/libpcre2-8.a(pcre2_compile_class.c.o)
 .rodata        0x0000000000109ecc      0x110 /yuneta/development/outputs_ext/lib/libpcre2-8.a(pcre2_find_bracket.c.o)
 *fill*         0x0000000000109fdc        0x4 
 .rodata        0x0000000000109fe0     0x2101 /yuneta/development/outputs_ext/lib/libpcre2-8.a(pcre2_jit_compile.c.o)
 .rodata.str1.8
                0x000000000010c0e1       0x26 /yuneta/development/outputs_ext/lib/libpcre2-8.a(pcre2_jit_compile.c.o)
 .rodata.cst8   0x000000000010c0e1       0x30 /yuneta/development/outputs_ext/lib/libpcre2-8.a(pcre2_jit_compile.c.o)
 .rodata.cst2   0x000000000010c0e1        0x4 /yuneta/development/outputs_ext/lib/libpcre2-8.a(pcre2_jit_compile.c.o)
 .rodata.cst16  0x000000000010c0e1       0x10 /yuneta/development/outputs_ext/lib/libpcre2-8.a(pcre2_jit_compile.c.o)
 *fill*         0x000000000010c0e1       0x1f 
 .rodata        0x000000000010c100      0xa2c /yuneta/development/outputs_ext/lib/libpcre2-8.a(pcre2_match.c.o)
 .rodata.str1.1
                0x000000000010cb2c        0x1 /yuneta/development/outputs_ext/lib/libpcre2-8.a(pcre2_match.c.o)
 .rodata.cst8   0x000000000010cb2c       0x28 /yuneta/development/outputs_ext/lib/libpcre2-8.a(pcre2_match.c.o)
 .rodata.cst16  0x000000000010cb2c       0x10 /yuneta/development/outputs_ext/lib/libpcre2-8.a(pcre2_match.c.o)
 .rodata        0x000000000010cb2c       0x30 /yuneta/development/outputs_ext/lib/libpcre2-8.a(pcre2_script_run.c.o)
 .rodata        0x000000000010cb5c      0x58c /yuneta/development/outputs_ext/lib/libpcre2-8.a(pcre2_study.c.o)
 *fill*         0x000000000010d0e8       0x18 
 .rodata        0x000000000010d100     0x1e4d /yuneta/development/outputs_ext/lib/libpcre2-8.a(pcre2_tables.c.o)
                0x000000000010d100                _pcre2_utt_size_8
                0x000000000010d120                _pcre2_utt_8
                0x000000000010dd20                _pcre2_utt_names_8
                0x000000000010ec00                _pcre2_ucp_typerange_8
                0x000000000010ec40                _pcre2_ucp_gbtable_8
                0x000000000010ec80                _pcre2_ucp_gentype_8
                0x000000000010ed00                _pcre2_utf8_table4
                0x000000000010ed40                _pcre2_utf8_table3
                0x000000000010ed60                _pcre2_utf8_table2
                0x000000000010ed78                _pcre2_utf8_table1_size
                0x000000000010ed80                _pcre2_utf8_table1
                0x000000000010eda0                _pcre2_callout_end_delims_8
                0x000000000010ede0                _pcre2_callout_start_delims_8
                0x000000000010ee20                _pcre2_vspace_list_8
                0x000000000010ee40                _pcre2_hspace_list_8
                0x000000000010eea0                _pcre2_OP_lengths_8
 *fill*         0x000000000010ef4d       0x13 
 .rodata        0x000000000010ef60    0x1d8d8 /yuneta/development/outputs_ext/lib/libpcre2-8.a(pcre2_ucd.c.o)
                0x000000000010ef60                _pcre2_ucd_stage2_8
                0x0000000000122a60                _pcre2_ucd_stage1_8
                0x0000000000126e60                _pcre2_ucd_records_8
                0x000000000012b6c0                _pcre2_ucd_boolprop_sets_8
                0x000000000012bcc0                _pcre2_ucd_script_sets_8
                0x000000000012c3c0                _pcre2_ucd_digit_sets_8
                0x000000000012c4f4                _pcre2_ucd_nocase_ranges_size_8
                0x000000000012c500                _pcre2_ucd_nocase_ranges_8
                0x000000000012c648                _pcre2_ucd_turkish_dotted_i_caseset_8
                0x000000000012c660                _pcre2_ucd_caseless_sets_8
 .rodata.str1.1
                0x000000000012c838        0x7 /yuneta/development/outputs_ext/lib/libpcre2-8.a(pcre2_ucd.c.o)
 .rodata        0x000000000012c838       0x18 /yuneta/development/outputs_ext/lib/libpcre2-8.a(pcre2_valid_utf.c.o)
 .rodata        0x000000000012c850       0xa8 /yuneta/development/outputs_ext/lib/libpcre2-8.a(pcre2_xclass.c.o)
 *fill*         0x000000000012c8f8        0x8 
 .rodata        0x000000000012c900      0x645 /yuneta/development/outputs_ext/lib/libpcre2-8.a(pcre2_auto_possess.c.o)
 *fill*         0x000000000012cf45       0x1b 
 .rodata        0x000000000012cf60      0x440 /yuneta/development/outputs_ext/lib/libpcre2-8.a(pcre2_chartables.c.o)
                0x000000000012cf60                _pcre2_default_tables_8
 .rodata.str1.1
                0x000000000012d3a0        0x5 /yuneta/development/outputs_ext/lib/libbacktrace.a(mmap.o)
 .rodata.str1.1
                0x000000000012d3a0       0x39 /yuneta/development/outputs_ext/lib/libbacktrace.a(fileline.o)
 .rodata.str1.8
                0x000000000012d3a0       0x57 /yuneta/development/outputs_ext/lib/libbacktrace.a(fileline.o)
 .rodata        0x000000000012d3a0       0x2c /yuneta/development/outputs_ext/lib/libbacktrace.a(fileline.o)
 .rodata.str1.1
                0x000000000012d3cc        0x6 /yuneta/development/outputs_ext/lib/libbacktrace.a(posix.o)
 .rodata.str1.8
                0x000000000012d3cc      0x159 /yuneta/development/outputs_ext/lib/libbacktrace.a(elf.o)
 .rodata.str1.1
                0x000000000012d3cc      0x122 /yuneta/development/outputs_ext/lib/libbacktrace.a(elf.o)
 *fill*         0x000000000012d3cc       0x14 
 .rodata        0x000000000012d3e0      0xf00 /yuneta/development/outputs_ext/lib/libbacktrace.a(elf.o)
 .rodata.cst16  0x000000000012e2e0       0x90 /yuneta/development/outputs_ext/lib/libbacktrace.a(elf.o)
 .rodata.str1.1
                0x000000000012e2e0        0xc /yuneta/development/outputs_ext/lib/libbacktrace.a(mmapio.o)
 .rodata.str1.1
                0x000000000012e2e0      0x1c7 /yuneta/development/outputs_ext/lib/libbacktrace.a(dwarf.o)
 .rodata.str1.8
                0x000000000012e2e0      0x2bb /yuneta/development/outputs_ext/lib/libbacktrace.a(dwarf.o)
 .rodata        0x000000000012e2e0      0x22c /yuneta/development/outputs_ext/lib/libbacktrace.a(dwarf.o)
 .rodata.cst8   0x000000000012e50c        0x8 /yuneta/development/outputs_ext/lib/libbacktrace.a(dwarf.o)
 .rodata        0x000000000012e50c      0x384 /usr/lib/gcc/x86_64-linux-gnu/13/libgcc_eh.a(unwind-dw2.o)
 .rodata.cst8   0x000000000012e890        0x8 /usr/lib/gcc/x86_64-linux-gnu/13/libgcc_eh.a(unwind-dw2.o)
 .rodata        0x000000000012e890       0x40 /usr/lib/gcc/x86_64-linux-gnu/13/libgcc_eh.a(unwind-dw2-fde-dip.o)
 .rodata.cst16  0x000000000012e8d0       0x10 /usr/lib/gcc/x86_64-linux-gnu/13/libgcc_eh.a(unwind-dw2-fde-dip.o)

.rodata1
 *(.rodata1)

.eh_frame_hdr
 *(.eh_frame_hdr)
 *(.eh_frame_entry .eh_frame_entry.*)

.eh_frame       0x000000000012e8d0    0x1e318
 *(.eh_frame)
 .eh_frame      0x000000000012e8d0       0x40 /usr/local/musl/lib/Scrt1.o
 .eh_frame      0x000000000012e910       0x18 /usr/local/musl/lib/Scrt1.o
                                         0x30 (size before relaxing)
 .eh_frame      0x000000000012e928       0xa0 CMakeFiles/fs_watcher.dir/src/main_fs_watcher.c.o
                                         0xb8 (size before relaxing)
 .eh_frame      0x000000000012e9c8      0x750 /yuneta/development/outputs/lib/libtimeranger2.a(fs_watcher.c.o)
                                        0x768 (size before relaxing)
 .eh_frame      0x000000000012f118     0x20a8 /yuneta/development/outputs/lib/libyev_loop.a(yev_loop.c.o)
                                       0x20c0 (size before relaxing)
 .eh_frame      0x00000000001311c0     0x7bb8 /yuneta/development/outputs/lib/libyunetas-gobj.a(gobj.c.o)
                                       0x7bd0 (size before relaxing)
 .eh_frame      0x0000000000138d78      0x310 /yuneta/development/outputs/lib/libyunetas-gobj.a(gbmem.c.o)
                                        0x328 (size before relaxing)
 .eh_frame      0x0000000000139088      0xce8 /yuneta/development/outputs/lib/libyunetas-gobj.a(gbuffer.c.o)
                                        0xd00 (size before relaxing)
 .eh_frame      0x0000000000139d70      0x740 /yuneta/development/outputs/lib/libyunetas-gobj.a(glogger.c.o)
                                        0x758 (size before relaxing)
 .eh_frame      0x000000000013a4b0      0x1f8 /yuneta/development/outputs/lib/libyunetas-gobj.a(log_udp_handler.c.o)
                                        0x210 (size before relaxing)
 .eh_frame      0x000000000013a6a8     0x2fd0 /yuneta/development/outputs/lib/libyunetas-gobj.a(helpers.c.o)
                                       0x2fe8 (size before relaxing)
 .eh_frame      0x000000000013d678     0x2ba0 /yuneta/development/outputs/lib/libyunetas-gobj.a(kwid.c.o)
                                       0x2bb8 (size before relaxing)
 .eh_frame      0x0000000000140218      0x458 /yuneta/development/outputs/lib/libyunetas-gobj.a(command_parser.c.o)
                                        0x470 (size before relaxing)
 .eh_frame      0x0000000000140670      0x188 /yuneta/development/outputs/lib/libyunetas-gobj.a(stats_parser.c.o)
                                        0x1a0 (size before relaxing)
 .eh_frame      0x00000000001407f8      0x1e8 /yuneta/development/outputs/lib/libyunetas-gobj.a(json_config.c.o)
                                        0x200 (size before relaxing)
 .eh_frame      0x00000000001409e0      0x290 /yuneta/development/outputs/lib/libyunetas-gobj.a(json_replace_vars.c.o)
                                        0x2a8 (size before relaxing)
 .eh_frame      0x0000000000140c70      0x268 /yuneta/development/outputs/lib/libyunetas-gobj.a(rotatory.c.o)
                                        0x280 (size before relaxing)
 .eh_frame      0x0000000000140ed8      0x1f0 /yuneta/development/outputs/lib/libyunetas-gobj.a(00_http_parser.c.o)
                                        0x208 (size before relaxing)
 .eh_frame      0x00000000001410c8      0x1f0 /yuneta/development/outputs/lib/libyunetas-gobj.a(dl_list.c.o)
                                        0x208 (size before relaxing)
 .eh_frame      0x00000000001412b8      0x3e8 /yuneta/development/outputs_ext/lib/liburing.a(setup.ol)
                                        0x400 (size before relaxing)
 .eh_frame      0x00000000001416a0      0x2b8 /yuneta/development/outputs_ext/lib/liburing.a(queue.ol)
                                        0x2d0 (size before relaxing)
 .eh_frame      0x0000000000141958      0x378 /yuneta/development/outputs_ext/lib/liburing.a(register.ol)
                                        0x390 (size before relaxing)
 .eh_frame      0x0000000000141cd0       0x40 /yuneta/development/outputs_ext/lib/liburing.a(nolibc.ol)
                                         0x58 (size before relaxing)
 .eh_frame      0x0000000000141d10      0x2f8 /yuneta/development/outputs_ext/lib/libjansson.a(dump.c.o)
                                        0x310 (size before relaxing)
 .eh_frame      0x0000000000142008      0x280 /yuneta/development/outputs_ext/lib/libjansson.a(hashtable.c.o)
                                        0x298 (size before relaxing)
 .eh_frame      0x0000000000142288       0x38 /yuneta/development/outputs_ext/lib/libjansson.a(hashtable_seed.c.o)
                                         0x50 (size before relaxing)
 .eh_frame      0x00000000001422c0      0x3e8 /yuneta/development/outputs_ext/lib/libjansson.a(load.c.o)
                                        0x400 (size before relaxing)
 .eh_frame      0x00000000001426a8       0x98 /yuneta/development/outputs_ext/lib/libjansson.a(memory.c.o)
                                         0xb0 (size before relaxing)
 .eh_frame      0x0000000000142740      0x2b8 /yuneta/development/outputs_ext/lib/libjansson.a(pack_unpack.c.o)
                                        0x2d0 (size before relaxing)
 .eh_frame      0x00000000001429f8       0xe8 /yuneta/development/outputs_ext/lib/libjansson.a(strbuffer.c.o)
                                        0x100 (size before relaxing)
 .eh_frame      0x0000000000142ae0       0xa0 /yuneta/development/outputs_ext/lib/libjansson.a(strconv.c.o)
                                         0xb8 (size before relaxing)
 .eh_frame      0x0000000000142b80       0xd0 /yuneta/development/outputs_ext/lib/libjansson.a(utf.c.o)
                                         0xe8 (size before relaxing)
 .eh_frame      0x0000000000142c50      0xb48 /yuneta/development/outputs_ext/lib/libjansson.a(value.c.o)
                                        0xb60 (size before relaxing)
 .eh_frame      0x0000000000143798      0x4d0 /yuneta/development/outputs_ext/lib/libjansson.a(dtoa.c.o)
                                        0x4e8 (size before relaxing)
 .eh_frame      0x0000000000143c68       0xc0 /yuneta/development/outputs_ext/lib/libjansson.a(error.c.o)
                                         0xd8 (size before relaxing)
 .eh_frame      0x0000000000143d28      0x968 /yuneta/development/outputs_ext/lib/libpcre2-8.a(pcre2_compile.c.o)
                                        0x980 (size before relaxing)
 .eh_frame      0x0000000000144690      0x330 /yuneta/development/outputs_ext/lib/libpcre2-8.a(pcre2_compile_class.c.o)
                                        0x348 (size before relaxing)
 .eh_frame      0x00000000001449c0      0x360 /yuneta/development/outputs_ext/lib/libpcre2-8.a(pcre2_context.c.o)
                                        0x378 (size before relaxing)
 .eh_frame      0x0000000000144d20       0x18 /yuneta/development/outputs_ext/lib/libpcre2-8.a(pcre2_find_bracket.c.o)
                                         0x30 (size before relaxing)
 .eh_frame      0x0000000000144d38     0x5000 /yuneta/development/outputs_ext/lib/libpcre2-8.a(pcre2_jit_compile.c.o)
                                       0x5018 (size before relaxing)
 .eh_frame      0x0000000000149d38      0x148 /yuneta/development/outputs_ext/lib/libpcre2-8.a(pcre2_match.c.o)
                                        0x160 (size before relaxing)
 .eh_frame      0x0000000000149e80       0xc8 /yuneta/development/outputs_ext/lib/libpcre2-8.a(pcre2_match_data.c.o)
                                         0xe0 (size before relaxing)
 .eh_frame      0x0000000000149f48       0x68 /yuneta/development/outputs_ext/lib/libpcre2-8.a(pcre2_newline.c.o)
                                         0x80 (size before relaxing)
 .eh_frame      0x0000000000149fb0       0x18 /yuneta/development/outputs_ext/lib/libpcre2-8.a(pcre2_ord2utf.c.o)
                                         0x30 (size before relaxing)
 .eh_frame      0x0000000000149fc8       0x50 /yuneta/development/outputs_ext/lib/libpcre2-8.a(pcre2_script_run.c.o)
                                         0x68 (size before relaxing)
 .eh_frame      0x000000000014a018       0x80 /yuneta/development/outputs_ext/lib/libpcre2-8.a(pcre2_string_utils.c.o)
                                         0x98 (size before relaxing)
 .eh_frame      0x000000000014a098      0x1b0 /yuneta/development/outputs_ext/lib/libpcre2-8.a(pcre2_study.c.o)
                                        0x1c8 (size before relaxing)
 .eh_frame      0x000000000014a248       0x90 /yuneta/development/outputs_ext/lib/libpcre2-8.a(pcre2_valid_utf.c.o)
                                         0xa8 (size before relaxing)
 .eh_frame      0x000000000014a2d8       0xe0 /yuneta/development/outputs_ext/lib/libpcre2-8.a(pcre2_xclass.c.o)
                                         0xf8 (size before relaxing)
 .eh_frame      0x000000000014a3b8      0x120 /yuneta/development/outputs_ext/lib/libpcre2-8.a(pcre2_auto_possess.c.o)
                                        0x138 (size before relaxing)
 .eh_frame      0x000000000014a4d8       0x18 /yuneta/development/outputs_ext/lib/libpcre2-8.a(pcre2_chkdint.c.o)
                                         0x30 (size before relaxing)
 .eh_frame      0x000000000014a4f0       0x48 /yuneta/development/outputs_ext/lib/libpcre2-8.a(pcre2_extuni.c.o)
                                         0x60 (size before relaxing)
 .eh_frame      0x000000000014a538       0x20 /yuneta/development/outputs_ext/lib/libbacktrace.a(state.o)
                                         0x38 (size before relaxing)
 .eh_frame      0x000000000014a558       0x48 /yuneta/development/outputs_ext/lib/libbacktrace.a(backtrace.o)
                                         0x60 (size before relaxing)
 .eh_frame      0x000000000014a5a0      0x148 /yuneta/development/outputs_ext/lib/libbacktrace.a(mmap.o)
                                        0x160 (size before relaxing)
 .eh_frame      0x000000000014a6e8      0x108 /yuneta/development/outputs_ext/lib/libbacktrace.a(fileline.o)
                                        0x120 (size before relaxing)
 .eh_frame      0x000000000014a7f0       0x70 /yuneta/development/outputs_ext/lib/libbacktrace.a(posix.o)
                                         0x88 (size before relaxing)
 .eh_frame      0x000000000014a860      0x790 /yuneta/development/outputs_ext/lib/libbacktrace.a(elf.o)
                                        0x7a8 (size before relaxing)
 .eh_frame      0x000000000014aff0       0x98 /yuneta/development/outputs_ext/lib/libbacktrace.a(mmapio.o)
                                         0xb0 (size before relaxing)
 .eh_frame      0x000000000014b088      0xdf8 /yuneta/development/outputs_ext/lib/libbacktrace.a(dwarf.o)
                                        0xe10 (size before relaxing)
 .eh_frame      0x000000000014be80       0x50 /yuneta/development/outputs_ext/lib/libbacktrace.a(sort.o)
                                         0x68 (size before relaxing)
 .eh_frame      0x000000000014bed0      0x688 /usr/lib/gcc/x86_64-linux-gnu/13/libgcc_eh.a(unwind-dw2.o)
                                        0x6a0 (size before relaxing)
 .eh_frame      0x000000000014c558      0x68c /usr/lib/gcc/x86_64-linux-gnu/13/libgcc_eh.a(unwind-dw2-fde-dip.o)
                                        0x6a8 (size before relaxing)
 .eh_frame      0x000000000014cbe4        0x4 /usr/lib/gcc/x86_64-linux-gnu/13/crtendS.o
 *(.eh_frame.*)

.sframe         0x000000000014cbe8        0x0
 *(.sframe)
 .sframe        0x000000000014cbe8        0x0 /usr/local/musl/lib/Scrt1.o
 *(.sframe.*)

.gcc_except_table
 *(.gcc_except_table .gcc_except_table.*)

.gnu_extab
 *(.gnu_extab*)

.exception_ranges
 *(.exception_ranges*)
                0x000000000014da88                . = DATA_SEGMENT_ALIGN (CONSTANT (MAXPAGESIZE), CONSTANT (COMMONPAGESIZE))

.eh_frame
 *(.eh_frame)
 *(.eh_frame.*)

.sframe
 *(.sframe)
 *(.sframe.*)

.gnu_extab
 *(.gnu_extab)

.gcc_except_table
 *(.gcc_except_table .gcc_except_table.*)

.exception_ranges
 *(.exception_ranges*)

.tdata          0x000000000014da88        0x0
                [!provide]                        PROVIDE (__tdata_start = .)
 *(.tdata .tdata.* .gnu.linkonce.td.*)

.tbss
 *(.tbss .tbss.* .gnu.linkonce.tb.*)
 *(.tcommon)

.preinit_array  0x000000000014da88        0x0
                [!provide]                        PROVIDE (__preinit_array_start = .)
 *(.preinit_array)
                [!provide]                        PROVIDE (__preinit_array_end = .)

.init_array     0x000000000014da88        0x8
                [!provide]                        PROVIDE (__init_array_start = .)
 *(SORT_BY_INIT_PRIORITY(.init_array.*) SORT_BY_INIT_PRIORITY(.ctors.*))
 *(.init_array EXCLUDE_FILE(*crtend?.o *crtend.o *crtbegin?.o *crtbegin.o) .ctors)
 .init_array    0x000000000014da88        0x8 /usr/lib/gcc/x86_64-linux-gnu/13/crtbeginS.o
                [!provide]                        PROVIDE (__init_array_end = .)

.fini_array     0x000000000014da90       0x10
                [!provide]                        PROVIDE (__fini_array_start = .)
 *(SORT_BY_INIT_PRIORITY(.fini_array.*) SORT_BY_INIT_PRIORITY(.dtors.*))
 *(.fini_array EXCLUDE_FILE(*crtend?.o *crtend.o *crtbegin?.o *crtbegin.o) .dtors)
 .fini_array    0x000000000014da90        0x8 /usr/lib/gcc/x86_64-linux-gnu/13/crtbeginS.o
 .fini_array    0x000000000014da98        0x8 /usr/lib/gcc/x86_64-linux-gnu/13/libgcc_eh.a(unwind-dw2-fde-dip.o)
                [!provide]                        PROVIDE (__fini_array_end = .)

.ctors
 *crtbegin.o(.ctors)
 *crtbegin?.o(.ctors)
 *(EXCLUDE_FILE(*crtend?.o *crtend.o) .ctors)
 *(SORT_BY_NAME(.ctors.*))
 *(.ctors)

.dtors
 *crtbegin.o(.dtors)
 *crtbegin?.o(.dtors)
 *(EXCLUDE_FILE(*crtend?.o *crtend.o) .dtors)
 *(SORT_BY_NAME(.dtors.*))
 *(.dtors)

.jcr
 *(.jcr)

.data.rel.ro    0x000000000014daa0      0xe20
 *(.data.rel.ro.local* .gnu.linkonce.d.rel.ro.local.*)
 .data.rel.ro.local
                0x000000000014daa0      0x228 /yuneta/development/outputs/lib/libtimeranger2.a(fs_watcher.c.o)
 *fill*         0x000000000014dcc8       0x18 
 .data.rel.ro.local
                0x000000000014dce0      0x100 /yuneta/development/outputs/lib/libyunetas-gobj.a(gobj.c.o)
 .data.rel.ro.local
                0x000000000014dde0       0x50 /yuneta/development/outputs/lib/libyunetas-gobj.a(glogger.c.o)
 *fill*         0x000000000014de30       0x10 
 .data.rel.ro.local
                0x000000000014de40       0x60 /yuneta/development/outputs/lib/libyunetas-gobj.a(log_udp_handler.c.o)
 .data.rel.ro.local
                0x000000000014dea0      0x4c0 /yuneta/development/outputs/lib/libyunetas-gobj.a(helpers.c.o)
 .data.rel.ro.local
                0x000000000014e360       0x60 /yuneta/development/outputs/lib/libyunetas-gobj.a(rotatory.c.o)
 .data.rel.ro.local
                0x000000000014e3c0      0x330 /yuneta/development/outputs/lib/libyunetas-gobj.a(00_http_parser.c.o)
 *fill*         0x000000000014e6f0       0x10 
 .data.rel.ro.local
                0x000000000014e700       0x40 /yuneta/development/outputs_ext/lib/libjansson.a(pack_unpack.c.o)
 .data.rel.ro.local
                0x000000000014e740      0x170 /yuneta/development/outputs_ext/lib/libpcre2-8.a(pcre2_compile.c.o)
 *(.data.rel.ro .data.rel.ro.* .gnu.linkonce.d.rel.ro.*)
 .data.rel.ro   0x000000000014e8b0       0x10 /usr/local/musl/lib/Scrt1.o
                0x000000000014e8b0                stdout
                0x000000000014e8b8                stderr

.dynamic        0x000000000014e8c0      0x1e0
 *(.dynamic)
 .dynamic       0x000000000014e8c0      0x1e0 /usr/local/musl/lib/Scrt1.o
                0x000000000014e8c0                _DYNAMIC

.got            0x000000000014eaa0      0x560
 *(.got.plt)
 .got.plt       0x000000000014eaa0      0x4e0 /usr/local/musl/lib/Scrt1.o
                0x000000000014eaa0                _GLOBAL_OFFSET_TABLE_
 *(.igot.plt)
 *(.got)
 .got           0x000000000014ef80       0x80 /usr/local/musl/lib/Scrt1.o
 *(.igot)
                0x000000000014f000                . = DATA_SEGMENT_RELRO_END (., 0x0)

.data           0x000000000014f000     0x1288
 *(.data .data.* .gnu.linkonce.d.*)
 .data          0x000000000014f000        0x0 /usr/lib/gcc/x86_64-linux-gnu/13/crtbeginS.o
 .data.rel.local
                0x000000000014f000        0x8 /usr/lib/gcc/x86_64-linux-gnu/13/crtbeginS.o
                0x000000000014f000                __dso_handle
 .data          0x000000000014f008        0x0 CMakeFiles/fs_watcher.dir/src/main_fs_watcher.c.o
 .data          0x000000000014f008        0x0 /yuneta/development/outputs/lib/libtimeranger2.a(fs_watcher.c.o)
 .data          0x000000000014f008        0x0 /yuneta/development/outputs/lib/libyev_loop.a(yev_loop.c.o)
 *fill*         0x000000000014f008       0x18 
 .data.rel.local
                0x000000000014f020       0x50 /yuneta/development/outputs/lib/libyev_loop.a(yev_loop.c.o)
 .data          0x000000000014f070        0x4 /yuneta/development/outputs/lib/libyunetas-gobj.a(gobj.c.o)
 *fill*         0x000000000014f074        0xc 
 .data.rel.local
                0x000000000014f080      0xf30 /yuneta/development/outputs/lib/libyunetas-gobj.a(gobj.c.o)
                0x000000000014fec0                event_flag_names
 .data          0x000000000014ffb0       0x10 /yuneta/development/outputs/lib/libyunetas-gobj.a(gbmem.c.o)
 .data.rel.local
                0x000000000014ffc0       0x20 /yuneta/development/outputs/lib/libyunetas-gobj.a(gbmem.c.o)
 .data          0x000000000014ffe0        0x0 /yuneta/development/outputs/lib/libyunetas-gobj.a(gbuffer.c.o)
 .data          0x000000000014ffe0        0x0 /yuneta/development/outputs/lib/libyunetas-gobj.a(glogger.c.o)
 .data.rel.local
                0x000000000014ffe0       0x68 /yuneta/development/outputs/lib/libyunetas-gobj.a(glogger.c.o)
 .data          0x0000000000150048        0x0 /yuneta/development/outputs/lib/libyunetas-gobj.a(log_udp_handler.c.o)
 .data          0x0000000000150048        0x4 /yuneta/development/outputs/lib/libyunetas-gobj.a(helpers.c.o)
 .data          0x000000000015004c        0x2 /yuneta/development/outputs/lib/libyunetas-gobj.a(kwid.c.o)
 .data          0x000000000015004e        0x0 /yuneta/development/outputs/lib/libyunetas-gobj.a(command_parser.c.o)
 .data          0x000000000015004e        0x0 /yuneta/development/outputs/lib/libyunetas-gobj.a(stats_parser.c.o)
 .data          0x000000000015004e        0x0 /yuneta/development/outputs/lib/libyunetas-gobj.a(json_config.c.o)
 .data          0x000000000015004e        0x0 /yuneta/development/outputs/lib/libyunetas-gobj.a(json_replace_vars.c.o)
 .data          0x000000000015004e        0x0 /yuneta/development/outputs/lib/libyunetas-gobj.a(rotatory.c.o)
 .data          0x000000000015004e        0x0 /yuneta/development/outputs/lib/libyunetas-gobj.a(g_ev_kernel.c.o)
 *fill*         0x000000000015004e        0x2 
 .data.rel.local
                0x0000000000150050       0xd0 /yuneta/development/outputs/lib/libyunetas-gobj.a(g_ev_kernel.c.o)
                0x0000000000150050                EV_STOPPED
                0x0000000000150058                EV_TX_READY
                0x0000000000150060                EV_TX_DATA
                0x0000000000150068                EV_RX_DATA
                0x0000000000150070                EV_DISCONNECTED
                0x0000000000150078                EV_DISCONNECT
                0x0000000000150080                EV_CONNECTED
                0x0000000000150088                EV_CONNECT
                0x0000000000150090                EV_HTTP_MESSAGE
                0x0000000000150098                EV_ON_HEADER
                0x00000000001500a0                EV_ON_ID_NAK
                0x00000000001500a8                EV_ON_ID
                0x00000000001500b0                EV_ON_IEV_MESSAGE
                0x00000000001500b8                EV_ON_COMMAND
                0x00000000001500c0                EV_ON_MESSAGE
                0x00000000001500c8                EV_ON_CLOSE
                0x00000000001500d0                EV_ON_OPEN
                0x00000000001500d8                EV_SEND_ENCRYPTED_DATA
                0x00000000001500e0                EV_REMOTE_LOG
                0x00000000001500e8                EV_DROP
                0x00000000001500f0                EV_SEND_EMAIL
                0x00000000001500f8                EV_SEND_IEV
                0x0000000000150100                EV_SEND_MESSAGE
                0x0000000000150108                EV_STATE_CHANGED
                0x0000000000150110                EV_TIMEOUT_PERIODIC
                0x0000000000150118                EV_TIMEOUT
 .data          0x0000000000150120        0x4 /yuneta/development/outputs/lib/libyunetas-gobj.a(00_http_parser.c.o)
 .data          0x0000000000150124        0x0 /yuneta/development/outputs/lib/libyunetas-gobj.a(dl_list.c.o)
 .data          0x0000000000150124        0x0 /yuneta/development/outputs_ext/lib/liburing.a(setup.ol)
 .data          0x0000000000150124        0x0 /yuneta/development/outputs_ext/lib/liburing.a(queue.ol)
 .data          0x0000000000150124        0x0 /yuneta/development/outputs_ext/lib/liburing.a(register.ol)
 .data          0x0000000000150124        0x0 /yuneta/development/outputs_ext/lib/liburing.a(nolibc.ol)
 .data          0x0000000000150124        0x0 /yuneta/development/outputs_ext/lib/libjansson.a(dump.c.o)
 .data          0x0000000000150124        0x0 /yuneta/development/outputs_ext/lib/libjansson.a(hashtable.c.o)
 .data          0x0000000000150124        0x0 /yuneta/development/outputs_ext/lib/libjansson.a(hashtable_seed.c.o)
 .data          0x0000000000150124        0x0 /yuneta/development/outputs_ext/lib/libjansson.a(load.c.o)
 .data          0x0000000000150124        0x0 /yuneta/development/outputs_ext/lib/libjansson.a(memory.c.o)
 *fill*         0x0000000000150124        0x4 
 .data.rel      0x0000000000150128       0x10 /yuneta/development/outputs_ext/lib/libjansson.a(memory.c.o)
 .data          0x0000000000150138        0x0 /yuneta/development/outputs_ext/lib/libjansson.a(pack_unpack.c.o)
 .data          0x0000000000150138        0x0 /yuneta/development/outputs_ext/lib/libjansson.a(strbuffer.c.o)
 .data          0x0000000000150138        0x0 /yuneta/development/outputs_ext/lib/libjansson.a(strconv.c.o)
 .data          0x0000000000150138        0x0 /yuneta/development/outputs_ext/lib/libjansson.a(utf.c.o)
 *fill*         0x0000000000150138        0x8 
 .data          0x0000000000150140       0x30 /yuneta/development/outputs_ext/lib/libjansson.a(value.c.o)
 .data          0x0000000000150170        0x4 /yuneta/development/outputs_ext/lib/libjansson.a(dtoa.c.o)
                0x0000000000150170                dtoa_divmax
 *fill*         0x0000000000150174        0x4 
 .data.rel.local
                0x0000000000150178        0x8 /yuneta/development/outputs_ext/lib/libjansson.a(dtoa.c.o)
 .data          0x0000000000150180        0x0 /yuneta/development/outputs_ext/lib/libjansson.a(error.c.o)
 .data          0x0000000000150180        0x0 /yuneta/development/outputs_ext/lib/libpcre2-8.a(pcre2_compile.c.o)
 .data          0x0000000000150180        0x0 /yuneta/development/outputs_ext/lib/libpcre2-8.a(pcre2_compile_class.c.o)
 .data          0x0000000000150180        0x0 /yuneta/development/outputs_ext/lib/libpcre2-8.a(pcre2_context.c.o)
 .data.rel.local
                0x0000000000150180       0x90 /yuneta/development/outputs_ext/lib/libpcre2-8.a(pcre2_context.c.o)
                0x0000000000150180                _pcre2_default_convert_context_8
                0x00000000001501a0                _pcre2_default_match_context_8
 *fill*         0x0000000000150210       0x10 
 .data.rel      0x0000000000150220       0x58 /yuneta/development/outputs_ext/lib/libpcre2-8.a(pcre2_context.c.o)
                0x0000000000150220                _pcre2_default_compile_context_8
 .data          0x0000000000150278        0x0 /yuneta/development/outputs_ext/lib/libpcre2-8.a(pcre2_find_bracket.c.o)
 .data          0x0000000000150278        0x5 /yuneta/development/outputs_ext/lib/libpcre2-8.a(pcre2_jit_compile.c.o)
 .data          0x000000000015027d        0x0 /yuneta/development/outputs_ext/lib/libpcre2-8.a(pcre2_match.c.o)
 .data          0x000000000015027d        0x0 /yuneta/development/outputs_ext/lib/libpcre2-8.a(pcre2_match_data.c.o)
 .data          0x000000000015027d        0x0 /yuneta/development/outputs_ext/lib/libpcre2-8.a(pcre2_newline.c.o)
 .data          0x000000000015027d        0x0 /yuneta/development/outputs_ext/lib/libpcre2-8.a(pcre2_ord2utf.c.o)
 .data          0x000000000015027d        0x0 /yuneta/development/outputs_ext/lib/libpcre2-8.a(pcre2_script_run.c.o)
 .data          0x000000000015027d        0x0 /yuneta/development/outputs_ext/lib/libpcre2-8.a(pcre2_string_utils.c.o)
 .data          0x000000000015027d        0x0 /yuneta/development/outputs_ext/lib/libpcre2-8.a(pcre2_study.c.o)
 .data          0x000000000015027d        0x0 /yuneta/development/outputs_ext/lib/libpcre2-8.a(pcre2_tables.c.o)
 .data          0x000000000015027d        0x0 /yuneta/development/outputs_ext/lib/libpcre2-8.a(pcre2_ucd.c.o)
 *fill*         0x000000000015027d        0x3 
 .data.rel.local
                0x0000000000150280        0x8 /yuneta/development/outputs_ext/lib/libpcre2-8.a(pcre2_ucd.c.o)
                0x0000000000150280                _pcre2_unicode_version_8
 .data          0x0000000000150288        0x0 /yuneta/development/outputs_ext/lib/libpcre2-8.a(pcre2_valid_utf.c.o)
 .data          0x0000000000150288        0x0 /yuneta/development/outputs_ext/lib/libpcre2-8.a(pcre2_xclass.c.o)
 .data          0x0000000000150288        0x0 /yuneta/development/outputs_ext/lib/libpcre2-8.a(pcre2_auto_possess.c.o)
 .data          0x0000000000150288        0x0 /yuneta/development/outputs_ext/lib/libpcre2-8.a(pcre2_chartables.c.o)
 .data          0x0000000000150288        0x0 /yuneta/development/outputs_ext/lib/libpcre2-8.a(pcre2_chkdint.c.o)
 .data          0x0000000000150288        0x0 /yuneta/development/outputs_ext/lib/libpcre2-8.a(pcre2_extuni.c.o)
 .data          0x0000000000150288        0x0 /yuneta/development/outputs_ext/lib/libbacktrace.a(state.o)
 .data          0x0000000000150288        0x0 /yuneta/development/outputs_ext/lib/libbacktrace.a(backtrace.o)
 .data          0x0000000000150288        0x0 /yuneta/development/outputs_ext/lib/libbacktrace.a(mmap.o)
 .data          0x0000000000150288        0x0 /yuneta/development/outputs_ext/lib/libbacktrace.a(fileline.o)
 .data          0x0000000000150288        0x0 /yuneta/development/outputs_ext/lib/libbacktrace.a(posix.o)
 .data          0x0000000000150288        0x0 /yuneta/development/outputs_ext/lib/libbacktrace.a(elf.o)
 .data          0x0000000000150288        0x0 /yuneta/development/outputs_ext/lib/libbacktrace.a(mmapio.o)
 .data          0x0000000000150288        0x0 /yuneta/development/outputs_ext/lib/libbacktrace.a(dwarf.o)
 .data          0x0000000000150288        0x0 /yuneta/development/outputs_ext/lib/libbacktrace.a(sort.o)
 .data          0x0000000000150288        0x0 /usr/lib/gcc/x86_64-linux-gnu/13/libgcc_eh.a(unwind-dw2.o)
 .data          0x0000000000150288        0x0 /usr/lib/gcc/x86_64-linux-gnu/13/libgcc_eh.a(unwind-dw2-fde-dip.o)
 .data          0x0000000000150288        0x0 /usr/lib/gcc/x86_64-linux-gnu/13/crtendS.o

.tm_clone_table
                0x0000000000150288        0x0
 .tm_clone_table
                0x0000000000150288        0x0 /usr/lib/gcc/x86_64-linux-gnu/13/crtbeginS.o
 .tm_clone_table
                0x0000000000150288        0x0 /usr/lib/gcc/x86_64-linux-gnu/13/crtendS.o

.data1
 *(.data1)
                0x0000000000150288                _edata = .
                [!provide]                        PROVIDE (edata = .)
                0x0000000000150288                . = ALIGN (ALIGNOF (NEXT_SECTION))
                0x00000000001502a0                __bss_start = .

.bss            0x00000000001502a0     0x2028
 *(.dynbss)
 .dynbss        0x00000000001502a0        0x0 /usr/local/musl/lib/Scrt1.o
 *(.bss .bss.* .gnu.linkonce.b.*)
 .bss           0x00000000001502a0        0x1 /usr/lib/gcc/x86_64-linux-gnu/13/crtbeginS.o
 *fill*         0x00000000001502a1        0x7 
 .bss           0x00000000001502a8       0x1c CMakeFiles/fs_watcher.dir/src/main_fs_watcher.c.o
                0x00000000001502a8                yev_loop
                0x00000000001502b0                yev_event_periodic
                0x00000000001502b8                fs_event_h
 .bss           0x00000000001502c4        0x0 /yuneta/development/outputs/lib/libtimeranger2.a(fs_watcher.c.o)
 .bss           0x00000000001502c4        0x5 /yuneta/development/outputs/lib/libyev_loop.a(yev_loop.c.o)
                0x00000000001502c4                multishot_available
 *fill*         0x00000000001502c9       0x17 
 .bss           0x00000000001502e0      0x2cd /yuneta/development/outputs/lib/libyunetas-gobj.a(gobj.c.o)
 .bss           0x00000000001505ad        0x0 /yuneta/development/outputs/lib/libyunetas-gobj.a(gbmem.c.o)
 .bss           0x00000000001505ad        0x0 /yuneta/development/outputs/lib/libyunetas-gobj.a(gbuffer.c.o)
 *fill*         0x00000000001505ad       0x13 
 .bss           0x00000000001505c0      0x4a0 /yuneta/development/outputs/lib/libyunetas-gobj.a(glogger.c.o)
 .bss           0x0000000000150a60       0xa1 /yuneta/development/outputs/lib/libyunetas-gobj.a(log_udp_handler.c.o)
 *fill*         0x0000000000150b01       0x1f 
 .bss           0x0000000000150b20      0xac4 /yuneta/development/outputs/lib/libyunetas-gobj.a(helpers.c.o)
 *fill*         0x00000000001515e4       0x1c 
 .bss           0x0000000000151600       0xf4 /yuneta/development/outputs/lib/libyunetas-gobj.a(kwid.c.o)
 .bss           0x00000000001516f4        0x0 /yuneta/development/outputs/lib/libyunetas-gobj.a(command_parser.c.o)
 .bss           0x00000000001516f4        0x0 /yuneta/development/outputs/lib/libyunetas-gobj.a(stats_parser.c.o)
 .bss           0x00000000001516f4        0x0 /yuneta/development/outputs/lib/libyunetas-gobj.a(json_config.c.o)
 .bss           0x00000000001516f4        0x0 /yuneta/development/outputs/lib/libyunetas-gobj.a(json_replace_vars.c.o)
 *fill*         0x00000000001516f4        0xc 
 .bss           0x0000000000151700       0x4d /yuneta/development/outputs/lib/libyunetas-gobj.a(rotatory.c.o)
 .bss           0x000000000015174d        0x0 /yuneta/development/outputs/lib/libyunetas-gobj.a(g_ev_kernel.c.o)
 .bss           0x000000000015174d        0x0 /yuneta/development/outputs/lib/libyunetas-gobj.a(00_http_parser.c.o)
 .bss           0x000000000015174d        0x0 /yuneta/development/outputs/lib/libyunetas-gobj.a(dl_list.c.o)
 .bss           0x000000000015174d        0x0 /yuneta/development/outputs_ext/lib/liburing.a(setup.ol)
 .bss           0x000000000015174d        0x0 /yuneta/development/outputs_ext/lib/liburing.a(queue.ol)
 .bss           0x000000000015174d        0x0 /yuneta/development/outputs_ext/lib/liburing.a(register.ol)
 .bss           0x000000000015174d        0x0 /yuneta/development/outputs_ext/lib/liburing.a(nolibc.ol)
 .bss           0x000000000015174d        0x0 /yuneta/development/outputs_ext/lib/libjansson.a(dump.c.o)
 .bss           0x000000000015174d        0x0 /yuneta/development/outputs_ext/lib/libjansson.a(hashtable.c.o)
 *fill*         0x000000000015174d        0x3 
 .bss           0x0000000000151750        0x5 /yuneta/development/outputs_ext/lib/libjansson.a(hashtable_seed.c.o)
                0x0000000000151750                hashtable_seed
 .bss           0x0000000000151755        0x0 /yuneta/development/outputs_ext/lib/libjansson.a(load.c.o)
 .bss           0x0000000000151755        0x0 /yuneta/development/outputs_ext/lib/libjansson.a(memory.c.o)
 .bss           0x0000000000151755        0x0 /yuneta/development/outputs_ext/lib/libjansson.a(pack_unpack.c.o)
 .bss           0x0000000000151755        0x0 /yuneta/development/outputs_ext/lib/libjansson.a(strbuffer.c.o)
 .bss           0x0000000000151755        0x0 /yuneta/development/outputs_ext/lib/libjansson.a(strconv.c.o)
 .bss           0x0000000000151755        0x0 /yuneta/development/outputs_ext/lib/libjansson.a(utf.c.o)
 .bss           0x0000000000151755        0x0 /yuneta/development/outputs_ext/lib/libjansson.a(value.c.o)
 *fill*         0x0000000000151755        0xb 
 .bss           0x0000000000151760      0x980 /yuneta/development/outputs_ext/lib/libjansson.a(dtoa.c.o)
 .bss           0x00000000001520e0        0x0 /yuneta/development/outputs_ext/lib/libjansson.a(error.c.o)
 .bss           0x00000000001520e0        0x0 /yuneta/development/outputs_ext/lib/libpcre2-8.a(pcre2_compile.c.o)
 .bss           0x00000000001520e0        0x0 /yuneta/development/outputs_ext/lib/libpcre2-8.a(pcre2_compile_class.c.o)
 .bss           0x00000000001520e0        0x0 /yuneta/development/outputs_ext/lib/libpcre2-8.a(pcre2_context.c.o)
 .bss           0x00000000001520e0        0x0 /yuneta/development/outputs_ext/lib/libpcre2-8.a(pcre2_find_bracket.c.o)
 .bss           0x00000000001520e0       0xc8 /yuneta/development/outputs_ext/lib/libpcre2-8.a(pcre2_jit_compile.c.o)
 .bss           0x00000000001521a8        0x0 /yuneta/development/outputs_ext/lib/libpcre2-8.a(pcre2_match.c.o)
 .bss           0x00000000001521a8        0x0 /yuneta/development/outputs_ext/lib/libpcre2-8.a(pcre2_match_data.c.o)
 .bss           0x00000000001521a8        0x0 /yuneta/development/outputs_ext/lib/libpcre2-8.a(pcre2_newline.c.o)
 .bss           0x00000000001521a8        0x0 /yuneta/development/outputs_ext/lib/libpcre2-8.a(pcre2_ord2utf.c.o)
 .bss           0x00000000001521a8        0x0 /yuneta/development/outputs_ext/lib/libpcre2-8.a(pcre2_script_run.c.o)
 .bss           0x00000000001521a8        0x0 /yuneta/development/outputs_ext/lib/libpcre2-8.a(pcre2_string_utils.c.o)
 .bss           0x00000000001521a8        0x0 /yuneta/development/outputs_ext/lib/libpcre2-8.a(pcre2_study.c.o)
 .bss           0x00000000001521a8        0x0 /yuneta/development/outputs_ext/lib/libpcre2-8.a(pcre2_tables.c.o)
 .bss           0x00000000001521a8        0x0 /yuneta/development/outputs_ext/lib/libpcre2-8.a(pcre2_ucd.c.o)
 .bss           0x00000000001521a8        0x0 /yuneta/development/outputs_ext/lib/libpcre2-8.a(pcre2_valid_utf.c.o)
 .bss           0x00000000001521a8        0x0 /yuneta/development/outputs_ext/lib/libpcre2-8.a(pcre2_xclass.c.o)
 .bss           0x00000000001521a8        0x0 /yuneta/development/outputs_ext/lib/libpcre2-8.a(pcre2_auto_possess.c.o)
 .bss           0x00000000001521a8        0x0 /yuneta/development/outputs_ext/lib/libpcre2-8.a(pcre2_chartables.c.o)
 .bss           0x00000000001521a8        0x0 /yuneta/development/outputs_ext/lib/libpcre2-8.a(pcre2_chkdint.c.o)
 .bss           0x00000000001521a8        0x0 /yuneta/development/outputs_ext/lib/libpcre2-8.a(pcre2_extuni.c.o)
 .bss           0x00000000001521a8        0x0 /yuneta/development/outputs_ext/lib/libbacktrace.a(state.o)
 .bss           0x00000000001521a8        0x0 /yuneta/development/outputs_ext/lib/libbacktrace.a(backtrace.o)
 .bss           0x00000000001521a8        0x0 /yuneta/development/outputs_ext/lib/libbacktrace.a(mmap.o)
 .bss           0x00000000001521a8        0x0 /yuneta/development/outputs_ext/lib/libbacktrace.a(fileline.o)
 .bss           0x00000000001521a8        0x0 /yuneta/development/outputs_ext/lib/libbacktrace.a(posix.o)
 .bss           0x00000000001521a8        0x0 /yuneta/development/outputs_ext/lib/libbacktrace.a(elf.o)
 .bss           0x00000000001521a8        0x0 /yuneta/development/outputs_ext/lib/libbacktrace.a(mmapio.o)
 .bss           0x00000000001521a8        0x0 /yuneta/development/outputs_ext/lib/libbacktrace.a(dwarf.o)
 .bss           0x00000000001521a8        0x0 /yuneta/development/outputs_ext/lib/libbacktrace.a(sort.o)
 *fill*         0x00000000001521a8        0x8 
 .bss           0x00000000001521b0       0x22 /usr/lib/gcc/x86_64-linux-gnu/13/libgcc_eh.a(unwind-dw2.o)
 *fill*         0x00000000001521d2        0xe 
 .bss           0x00000000001521e0       0xe8 /usr/lib/gcc/x86_64-linux-gnu/13/libgcc_eh.a(unwind-dw2-fde-dip.o)
 .bss           0x00000000001522c8        0x0 /usr/lib/gcc/x86_64-linux-gnu/13/crtendS.o
 *(COMMON)
                0x00000000001522c8                . = ALIGN ((. != 0x0)?0x8:0x1)

.lbss
 *(.dynlbss)
 *(.lbss .lbss.* .gnu.linkonce.lb.*)
 *(LARGE_COMMON)
                0x00000000001522c8                . = ALIGN (0x8)
                0x00000000001522c8                . = SEGMENT_START ("ldata-segment", .)

.lrodata
 *(.lrodata .lrodata.* .gnu.linkonce.lr.*)

.ldata          0x00000000001542c8        0x0
 *(.ldata .ldata.* .gnu.linkonce.l.*)
                0x00000000001542c8                . = ALIGN ((. != 0x0)?0x8:0x1)
                0x00000000001542c8                . = ALIGN (0x8)
                0x00000000001522c8                _end = .
                [!provide]                        PROVIDE (end = .)
                0x00000000001542c8                . = DATA_SEGMENT_END (.)

.stab
 *(.stab)

.stabstr
 *(.stabstr)

.stab.excl
 *(.stab.excl)

.stab.exclstr
 *(.stab.exclstr)

.stab.index
 *(.stab.index)

.stab.indexstr
 *(.stab.indexstr)

.comment        0x0000000000000000       0x52
 *(.comment)
 .comment       0x0000000000000000       0x52 /usr/local/musl/lib/Scrt1.o
                                         0x28 (size before relaxing)
 .comment       0x0000000000000052       0x2c /usr/lib/gcc/x86_64-linux-gnu/13/crtbeginS.o
 .comment       0x0000000000000052       0x2c CMakeFiles/fs_watcher.dir/src/main_fs_watcher.c.o
 .comment       0x0000000000000052       0x2c /yuneta/development/outputs/lib/libtimeranger2.a(fs_watcher.c.o)
 .comment       0x0000000000000052       0x2c /yuneta/development/outputs/lib/libyev_loop.a(yev_loop.c.o)
 .comment       0x0000000000000052       0x2c /yuneta/development/outputs/lib/libyunetas-gobj.a(gobj.c.o)
 .comment       0x0000000000000052       0x2c /yuneta/development/outputs/lib/libyunetas-gobj.a(gbmem.c.o)
 .comment       0x0000000000000052       0x2c /yuneta/development/outputs/lib/libyunetas-gobj.a(gbuffer.c.o)
 .comment       0x0000000000000052       0x2c /yuneta/development/outputs/lib/libyunetas-gobj.a(glogger.c.o)
 .comment       0x0000000000000052       0x2c /yuneta/development/outputs/lib/libyunetas-gobj.a(log_udp_handler.c.o)
 .comment       0x0000000000000052       0x2c /yuneta/development/outputs/lib/libyunetas-gobj.a(helpers.c.o)
 .comment       0x0000000000000052       0x2c /yuneta/development/outputs/lib/libyunetas-gobj.a(kwid.c.o)
 .comment       0x0000000000000052       0x2c /yuneta/development/outputs/lib/libyunetas-gobj.a(command_parser.c.o)
 .comment       0x0000000000000052       0x2c /yuneta/development/outputs/lib/libyunetas-gobj.a(stats_parser.c.o)
 .comment       0x0000000000000052       0x2c /yuneta/development/outputs/lib/libyunetas-gobj.a(json_config.c.o)
 .comment       0x0000000000000052       0x2c /yuneta/development/outputs/lib/libyunetas-gobj.a(json_replace_vars.c.o)
 .comment       0x0000000000000052       0x2c /yuneta/development/outputs/lib/libyunetas-gobj.a(rotatory.c.o)
 .comment       0x0000000000000052       0x2c /yuneta/development/outputs/lib/libyunetas-gobj.a(g_ev_kernel.c.o)
 .comment       0x0000000000000052       0x2c /yuneta/development/outputs/lib/libyunetas-gobj.a(00_http_parser.c.o)
 .comment       0x0000000000000052       0x2c /yuneta/development/outputs/lib/libyunetas-gobj.a(dl_list.c.o)
 .comment       0x0000000000000052       0x2c /yuneta/development/outputs_ext/lib/liburing.a(setup.ol)
 .comment       0x0000000000000052       0x2c /yuneta/development/outputs_ext/lib/liburing.a(queue.ol)
 .comment       0x0000000000000052       0x2c /yuneta/development/outputs_ext/lib/liburing.a(register.ol)
 .comment       0x0000000000000052       0x2c /yuneta/development/outputs_ext/lib/liburing.a(nolibc.ol)
 .comment       0x0000000000000052       0x2c /yuneta/development/outputs_ext/lib/libjansson.a(dump.c.o)
 .comment       0x0000000000000052       0x2c /yuneta/development/outputs_ext/lib/libjansson.a(hashtable.c.o)
 .comment       0x0000000000000052       0x2c /yuneta/development/outputs_ext/lib/libjansson.a(hashtable_seed.c.o)
 .comment       0x0000000000000052       0x2c /yuneta/development/outputs_ext/lib/libjansson.a(load.c.o)
 .comment       0x0000000000000052       0x2c /yuneta/development/outputs_ext/lib/libjansson.a(memory.c.o)
 .comment       0x0000000000000052       0x2c /yuneta/development/outputs_ext/lib/libjansson.a(pack_unpack.c.o)
 .comment       0x0000000000000052       0x2c /yuneta/development/outputs_ext/lib/libjansson.a(strbuffer.c.o)
 .comment       0x0000000000000052       0x2c /yuneta/development/outputs_ext/lib/libjansson.a(strconv.c.o)
 .comment       0x0000000000000052       0x2c /yuneta/development/outputs_ext/lib/libjansson.a(utf.c.o)
 .comment       0x0000000000000052       0x2c /yuneta/development/outputs_ext/lib/libjansson.a(value.c.o)
 .comment       0x0000000000000052       0x2c /yuneta/development/outputs_ext/lib/libjansson.a(dtoa.c.o)
 .comment       0x0000000000000052       0x2c /yuneta/development/outputs_ext/lib/libjansson.a(error.c.o)
 .comment       0x0000000000000052       0x2c /yuneta/development/outputs_ext/lib/libpcre2-8.a(pcre2_compile.c.o)
 .comment       0x0000000000000052       0x2c /yuneta/development/outputs_ext/lib/libpcre2-8.a(pcre2_compile_class.c.o)
 .comment       0x0000000000000052       0x2c /yuneta/development/outputs_ext/lib/libpcre2-8.a(pcre2_context.c.o)
 .comment       0x0000000000000052       0x2c /yuneta/development/outputs_ext/lib/libpcre2-8.a(pcre2_find_bracket.c.o)
 .comment       0x0000000000000052       0x2c /yuneta/development/outputs_ext/lib/libpcre2-8.a(pcre2_jit_compile.c.o)
 .comment       0x0000000000000052       0x2c /yuneta/development/outputs_ext/lib/libpcre2-8.a(pcre2_match.c.o)
 .comment       0x0000000000000052       0x2c /yuneta/development/outputs_ext/lib/libpcre2-8.a(pcre2_match_data.c.o)
 .comment       0x0000000000000052       0x2c /yuneta/development/outputs_ext/lib/libpcre2-8.a(pcre2_newline.c.o)
 .comment       0x0000000000000052       0x2c /yuneta/development/outputs_ext/lib/libpcre2-8.a(pcre2_ord2utf.c.o)
 .comment       0x0000000000000052       0x2c /yuneta/development/outputs_ext/lib/libpcre2-8.a(pcre2_script_run.c.o)
 .comment       0x0000000000000052       0x2c /yuneta/development/outputs_ext/lib/libpcre2-8.a(pcre2_string_utils.c.o)
 .comment       0x0000000000000052       0x2c /yuneta/development/outputs_ext/lib/libpcre2-8.a(pcre2_study.c.o)
 .comment       0x0000000000000052       0x2c /yuneta/development/outputs_ext/lib/libpcre2-8.a(pcre2_tables.c.o)
 .comment       0x0000000000000052       0x2c /yuneta/development/outputs_ext/lib/libpcre2-8.a(pcre2_ucd.c.o)
 .comment       0x0000000000000052       0x2c /yuneta/development/outputs_ext/lib/libpcre2-8.a(pcre2_valid_utf.c.o)
 .comment       0x0000000000000052       0x2c /yuneta/development/outputs_ext/lib/libpcre2-8.a(pcre2_xclass.c.o)
 .comment       0x0000000000000052       0x2c /yuneta/development/outputs_ext/lib/libpcre2-8.a(pcre2_auto_possess.c.o)
 .comment       0x0000000000000052       0x2c /yuneta/development/outputs_ext/lib/libpcre2-8.a(pcre2_chartables.c.o)
 .comment       0x0000000000000052       0x2c /yuneta/development/outputs_ext/lib/libpcre2-8.a(pcre2_chkdint.c.o)
 .comment       0x0000000000000052       0x2c /yuneta/development/outputs_ext/lib/libpcre2-8.a(pcre2_extuni.c.o)
 .comment       0x0000000000000052       0x2c /yuneta/development/outputs_ext/lib/libbacktrace.a(state.o)
 .comment       0x0000000000000052       0x2c /yuneta/development/outputs_ext/lib/libbacktrace.a(backtrace.o)
 .comment       0x0000000000000052       0x2c /yuneta/development/outputs_ext/lib/libbacktrace.a(mmap.o)
 .comment       0x0000000000000052       0x2c /yuneta/development/outputs_ext/lib/libbacktrace.a(fileline.o)
 .comment       0x0000000000000052       0x2c /yuneta/development/outputs_ext/lib/libbacktrace.a(posix.o)
 .comment       0x0000000000000052       0x2c /yuneta/development/outputs_ext/lib/libbacktrace.a(elf.o)
 .comment       0x0000000000000052       0x2c /yuneta/development/outputs_ext/lib/libbacktrace.a(mmapio.o)
 .comment       0x0000000000000052       0x2c /yuneta/development/outputs_ext/lib/libbacktrace.a(dwarf.o)
 .comment       0x0000000000000052       0x2c /yuneta/development/outputs_ext/lib/libbacktrace.a(sort.o)
 .comment       0x0000000000000052       0x2c /usr/lib/gcc/x86_64-linux-gnu/13/crtendS.o

.gnu.build.attributes
 *(.gnu.build.attributes .gnu.build.attributes.*)

.debug
 *(.debug)

.line
 *(.line)

.debug_srcinfo
 *(.debug_srcinfo)

.debug_sfnames
 *(.debug_sfnames)

.debug_aranges  0x0000000000000000      0x8e0
 *(.debug_aranges)
 .debug_aranges
                0x0000000000000000       0x30 CMakeFiles/fs_watcher.dir/src/main_fs_watcher.c.o
 .debug_aranges
                0x0000000000000030       0x60 /yuneta/development/outputs_ext/lib/liburing.a(setup.ol)
 .debug_aranges
                0x0000000000000090       0x30 /yuneta/development/outputs_ext/lib/liburing.a(queue.ol)
 .debug_aranges
                0x00000000000000c0       0x30 /yuneta/development/outputs_ext/lib/liburing.a(register.ol)
 .debug_aranges
                0x00000000000000f0       0x30 /yuneta/development/outputs_ext/lib/liburing.a(nolibc.ol)
 .debug_aranges
                0x0000000000000120       0x40 /yuneta/development/outputs_ext/lib/libjansson.a(dump.c.o)
 .debug_aranges
                0x0000000000000160       0x30 /yuneta/development/outputs_ext/lib/libjansson.a(hashtable.c.o)
 .debug_aranges
                0x0000000000000190       0x30 /yuneta/development/outputs_ext/lib/libjansson.a(hashtable_seed.c.o)
 .debug_aranges
                0x00000000000001c0       0x30 /yuneta/development/outputs_ext/lib/libjansson.a(load.c.o)
 .debug_aranges
                0x00000000000001f0       0x30 /yuneta/development/outputs_ext/lib/libjansson.a(memory.c.o)
 .debug_aranges
                0x0000000000000220       0x30 /yuneta/development/outputs_ext/lib/libjansson.a(pack_unpack.c.o)
 .debug_aranges
                0x0000000000000250       0x30 /yuneta/development/outputs_ext/lib/libjansson.a(strbuffer.c.o)
 .debug_aranges
                0x0000000000000280       0x30 /yuneta/development/outputs_ext/lib/libjansson.a(strconv.c.o)
 .debug_aranges
                0x00000000000002b0       0x30 /yuneta/development/outputs_ext/lib/libjansson.a(utf.c.o)
 .debug_aranges
                0x00000000000002e0       0x40 /yuneta/development/outputs_ext/lib/libjansson.a(value.c.o)
 .debug_aranges
                0x0000000000000320       0x30 /yuneta/development/outputs_ext/lib/libjansson.a(dtoa.c.o)
 .debug_aranges
                0x0000000000000350       0x30 /yuneta/development/outputs_ext/lib/libjansson.a(error.c.o)
 .debug_aranges
                0x0000000000000380       0x30 /yuneta/development/outputs_ext/lib/libpcre2-8.a(pcre2_compile.c.o)
 .debug_aranges
                0x00000000000003b0       0x30 /yuneta/development/outputs_ext/lib/libpcre2-8.a(pcre2_compile_class.c.o)
 .debug_aranges
                0x00000000000003e0       0x30 /yuneta/development/outputs_ext/lib/libpcre2-8.a(pcre2_context.c.o)
 .debug_aranges
                0x0000000000000410       0x30 /yuneta/development/outputs_ext/lib/libpcre2-8.a(pcre2_find_bracket.c.o)
 .debug_aranges
                0x0000000000000440       0x40 /yuneta/development/outputs_ext/lib/libpcre2-8.a(pcre2_jit_compile.c.o)
 .debug_aranges
                0x0000000000000480       0x30 /yuneta/development/outputs_ext/lib/libpcre2-8.a(pcre2_match.c.o)
 .debug_aranges
                0x00000000000004b0       0x30 /yuneta/development/outputs_ext/lib/libpcre2-8.a(pcre2_match_data.c.o)
 .debug_aranges
                0x00000000000004e0       0x30 /yuneta/development/outputs_ext/lib/libpcre2-8.a(pcre2_newline.c.o)
 .debug_aranges
                0x0000000000000510       0x30 /yuneta/development/outputs_ext/lib/libpcre2-8.a(pcre2_ord2utf.c.o)
 .debug_aranges
                0x0000000000000540       0x30 /yuneta/development/outputs_ext/lib/libpcre2-8.a(pcre2_script_run.c.o)
 .debug_aranges
                0x0000000000000570       0x30 /yuneta/development/outputs_ext/lib/libpcre2-8.a(pcre2_string_utils.c.o)
 .debug_aranges
                0x00000000000005a0       0x30 /yuneta/development/outputs_ext/lib/libpcre2-8.a(pcre2_study.c.o)
 .debug_aranges
                0x00000000000005d0       0x20 /yuneta/development/outputs_ext/lib/libpcre2-8.a(pcre2_tables.c.o)
 .debug_aranges
                0x00000000000005f0       0x20 /yuneta/development/outputs_ext/lib/libpcre2-8.a(pcre2_ucd.c.o)
 .debug_aranges
                0x0000000000000610       0x30 /yuneta/development/outputs_ext/lib/libpcre2-8.a(pcre2_valid_utf.c.o)
 .debug_aranges
                0x0000000000000640       0x30 /yuneta/development/outputs_ext/lib/libpcre2-8.a(pcre2_xclass.c.o)
 .debug_aranges
                0x0000000000000670       0x30 /yuneta/development/outputs_ext/lib/libpcre2-8.a(pcre2_auto_possess.c.o)
 .debug_aranges
                0x00000000000006a0       0x20 /yuneta/development/outputs_ext/lib/libpcre2-8.a(pcre2_chartables.c.o)
 .debug_aranges
                0x00000000000006c0       0x30 /yuneta/development/outputs_ext/lib/libpcre2-8.a(pcre2_chkdint.c.o)
 .debug_aranges
                0x00000000000006f0       0x30 /yuneta/development/outputs_ext/lib/libpcre2-8.a(pcre2_extuni.c.o)
 .debug_aranges
                0x0000000000000720       0x30 /yuneta/development/outputs_ext/lib/libbacktrace.a(state.o)
 .debug_aranges
                0x0000000000000750       0x30 /yuneta/development/outputs_ext/lib/libbacktrace.a(backtrace.o)
 .debug_aranges
                0x0000000000000780       0x30 /yuneta/development/outputs_ext/lib/libbacktrace.a(mmap.o)
 .debug_aranges
                0x00000000000007b0       0x30 /yuneta/development/outputs_ext/lib/libbacktrace.a(fileline.o)
 .debug_aranges
                0x00000000000007e0       0x30 /yuneta/development/outputs_ext/lib/libbacktrace.a(posix.o)
 .debug_aranges
                0x0000000000000810       0x40 /yuneta/development/outputs_ext/lib/libbacktrace.a(elf.o)
 .debug_aranges
                0x0000000000000850       0x30 /yuneta/development/outputs_ext/lib/libbacktrace.a(mmapio.o)
 .debug_aranges
                0x0000000000000880       0x30 /yuneta/development/outputs_ext/lib/libbacktrace.a(dwarf.o)
 .debug_aranges
                0x00000000000008b0       0x30 /yuneta/development/outputs_ext/lib/libbacktrace.a(sort.o)

.debug_pubnames
 *(.debug_pubnames)

.debug_info     0x0000000000000000    0xcdd8c
 *(.debug_info .gnu.linkonce.wi.*)
 .debug_info    0x0000000000000000     0x1167 CMakeFiles/fs_watcher.dir/src/main_fs_watcher.c.o
 .debug_info    0x0000000000001167     0x35e7 /yuneta/development/outputs_ext/lib/liburing.a(setup.ol)
 .debug_info    0x000000000000474e     0x3f79 /yuneta/development/outputs_ext/lib/liburing.a(queue.ol)
 .debug_info    0x00000000000086c7     0x4884 /yuneta/development/outputs_ext/lib/liburing.a(register.ol)
 .debug_info    0x000000000000cf4b      0x42a /yuneta/development/outputs_ext/lib/liburing.a(nolibc.ol)
 .debug_info    0x000000000000d375     0x2474 /yuneta/development/outputs_ext/lib/libjansson.a(dump.c.o)
 .debug_info    0x000000000000f7e9     0x1887 /yuneta/development/outputs_ext/lib/libjansson.a(hashtable.c.o)
 .debug_info    0x0000000000011070      0x602 /yuneta/development/outputs_ext/lib/libjansson.a(hashtable_seed.c.o)
 .debug_info    0x0000000000011672     0x40f1 /yuneta/development/outputs_ext/lib/libjansson.a(load.c.o)
 .debug_info    0x0000000000015763      0x3c0 /yuneta/development/outputs_ext/lib/libjansson.a(memory.c.o)
 .debug_info    0x0000000000015b23     0x332c /yuneta/development/outputs_ext/lib/libjansson.a(pack_unpack.c.o)
 .debug_info    0x0000000000018e4f      0x4a3 /yuneta/development/outputs_ext/lib/libjansson.a(strbuffer.c.o)
 .debug_info    0x00000000000192f2      0x8de /yuneta/development/outputs_ext/lib/libjansson.a(strconv.c.o)
 .debug_info    0x0000000000019bd0      0x338 /yuneta/development/outputs_ext/lib/libjansson.a(utf.c.o)
 .debug_info    0x0000000000019f08     0x4db8 /yuneta/development/outputs_ext/lib/libjansson.a(value.c.o)
 .debug_info    0x000000000001ecc0     0x4f7e /yuneta/development/outputs_ext/lib/libjansson.a(dtoa.c.o)
 .debug_info    0x0000000000023c3e      0x7bf /yuneta/development/outputs_ext/lib/libjansson.a(error.c.o)
 .debug_info    0x00000000000243fd     0x8151 /yuneta/development/outputs_ext/lib/libpcre2-8.a(pcre2_compile.c.o)
 .debug_info    0x000000000002c54e     0x41da /yuneta/development/outputs_ext/lib/libpcre2-8.a(pcre2_compile_class.c.o)
 .debug_info    0x0000000000030728     0x14d1 /yuneta/development/outputs_ext/lib/libpcre2-8.a(pcre2_context.c.o)
 .debug_info    0x0000000000031bf9      0x59b /yuneta/development/outputs_ext/lib/libpcre2-8.a(pcre2_find_bracket.c.o)
 .debug_info    0x0000000000032194    0x72275 /yuneta/development/outputs_ext/lib/libpcre2-8.a(pcre2_jit_compile.c.o)
 .debug_info    0x00000000000a4409     0x46b7 /yuneta/development/outputs_ext/lib/libpcre2-8.a(pcre2_match.c.o)
 .debug_info    0x00000000000a8ac0      0x811 /yuneta/development/outputs_ext/lib/libpcre2-8.a(pcre2_match_data.c.o)
 .debug_info    0x00000000000a92d1      0x1ee /yuneta/development/outputs_ext/lib/libpcre2-8.a(pcre2_newline.c.o)
 .debug_info    0x00000000000a94bf      0x15c /yuneta/development/outputs_ext/lib/libpcre2-8.a(pcre2_ord2utf.c.o)
 .debug_info    0x00000000000a961b      0xa24 /yuneta/development/outputs_ext/lib/libpcre2-8.a(pcre2_script_run.c.o)
 .debug_info    0x00000000000aa03f      0x362 /yuneta/development/outputs_ext/lib/libpcre2-8.a(pcre2_string_utils.c.o)
 .debug_info    0x00000000000aa3a1     0x1b80 /yuneta/development/outputs_ext/lib/libpcre2-8.a(pcre2_study.c.o)
 .debug_info    0x00000000000abf21      0xbc8 /yuneta/development/outputs_ext/lib/libpcre2-8.a(pcre2_tables.c.o)
 .debug_info    0x00000000000acae9      0x38a /yuneta/development/outputs_ext/lib/libpcre2-8.a(pcre2_ucd.c.o)
 .debug_info    0x00000000000ace73      0x1a1 /yuneta/development/outputs_ext/lib/libpcre2-8.a(pcre2_valid_utf.c.o)
 .debug_info    0x00000000000ad014      0x5d8 /yuneta/development/outputs_ext/lib/libpcre2-8.a(pcre2_xclass.c.o)
 .debug_info    0x00000000000ad5ec     0x166b /yuneta/development/outputs_ext/lib/libpcre2-8.a(pcre2_auto_possess.c.o)
 .debug_info    0x00000000000aec57       0xd2 /yuneta/development/outputs_ext/lib/libpcre2-8.a(pcre2_chartables.c.o)
 .debug_info    0x00000000000aed29       0xeb /yuneta/development/outputs_ext/lib/libpcre2-8.a(pcre2_chkdint.c.o)
 .debug_info    0x00000000000aee14      0x365 /yuneta/development/outputs_ext/lib/libpcre2-8.a(pcre2_extuni.c.o)
 .debug_info    0x00000000000af179      0x372 /yuneta/development/outputs_ext/lib/libbacktrace.a(state.o)
 .debug_info    0x00000000000af4eb      0x5df /yuneta/development/outputs_ext/lib/libbacktrace.a(backtrace.o)
 .debug_info    0x00000000000afaca      0xc00 /yuneta/development/outputs_ext/lib/libbacktrace.a(mmap.o)
 .debug_info    0x00000000000b06ca      0x897 /yuneta/development/outputs_ext/lib/libbacktrace.a(fileline.o)
 .debug_info    0x00000000000b0f61      0x34b /yuneta/development/outputs_ext/lib/libbacktrace.a(posix.o)
 .debug_info    0x00000000000b12ac     0xcaf8 /yuneta/development/outputs_ext/lib/libbacktrace.a(elf.o)
 .debug_info    0x00000000000bdda4      0x52a /yuneta/development/outputs_ext/lib/libbacktrace.a(mmapio.o)
 .debug_info    0x00000000000be2ce     0xf766 /yuneta/development/outputs_ext/lib/libbacktrace.a(dwarf.o)
 .debug_info    0x00000000000cda34      0x358 /yuneta/development/outputs_ext/lib/libbacktrace.a(sort.o)

.debug_abbrev   0x0000000000000000     0x8bc8
 *(.debug_abbrev)
 .debug_abbrev  0x0000000000000000      0x2f7 CMakeFiles/fs_watcher.dir/src/main_fs_watcher.c.o
 .debug_abbrev  0x00000000000002f7      0x5bb /yuneta/development/outputs_ext/lib/liburing.a(setup.ol)
 .debug_abbrev  0x00000000000008b2      0x4f9 /yuneta/development/outputs_ext/lib/liburing.a(queue.ol)
 .debug_abbrev  0x0000000000000dab      0x577 /yuneta/development/outputs_ext/lib/liburing.a(register.ol)
 .debug_abbrev  0x0000000000001322      0x233 /yuneta/development/outputs_ext/lib/liburing.a(nolibc.ol)
 .debug_abbrev  0x0000000000001555      0x48f /yuneta/development/outputs_ext/lib/libjansson.a(dump.c.o)
 .debug_abbrev  0x00000000000019e4      0x3fc /yuneta/development/outputs_ext/lib/libjansson.a(hashtable.c.o)
 .debug_abbrev  0x0000000000001de0      0x2b4 /yuneta/development/outputs_ext/lib/libjansson.a(hashtable_seed.c.o)
 .debug_abbrev  0x0000000000002094      0x68c /yuneta/development/outputs_ext/lib/libjansson.a(load.c.o)
 .debug_abbrev  0x0000000000002720      0x1e2 /yuneta/development/outputs_ext/lib/libjansson.a(memory.c.o)
 .debug_abbrev  0x0000000000002902      0x4f4 /yuneta/development/outputs_ext/lib/libjansson.a(pack_unpack.c.o)
 .debug_abbrev  0x0000000000002df6      0x1e8 /yuneta/development/outputs_ext/lib/libjansson.a(strbuffer.c.o)
 .debug_abbrev  0x0000000000002fde      0x287 /yuneta/development/outputs_ext/lib/libjansson.a(strconv.c.o)
 .debug_abbrev  0x0000000000003265       0xfb /yuneta/development/outputs_ext/lib/libjansson.a(utf.c.o)
 .debug_abbrev  0x0000000000003360      0x5c5 /yuneta/development/outputs_ext/lib/libjansson.a(value.c.o)
 .debug_abbrev  0x0000000000003925      0x4b0 /yuneta/development/outputs_ext/lib/libjansson.a(dtoa.c.o)
 .debug_abbrev  0x0000000000003dd5      0x29c /yuneta/development/outputs_ext/lib/libjansson.a(error.c.o)
 .debug_abbrev  0x0000000000004071      0x5c8 /yuneta/development/outputs_ext/lib/libpcre2-8.a(pcre2_compile.c.o)
 .debug_abbrev  0x0000000000004639      0x5a2 /yuneta/development/outputs_ext/lib/libpcre2-8.a(pcre2_compile_class.c.o)
 .debug_abbrev  0x0000000000004bdb      0x351 /yuneta/development/outputs_ext/lib/libpcre2-8.a(pcre2_context.c.o)
 .debug_abbrev  0x0000000000004f2c       0xf7 /yuneta/development/outputs_ext/lib/libpcre2-8.a(pcre2_find_bracket.c.o)
 .debug_abbrev  0x0000000000005023      0x8de /yuneta/development/outputs_ext/lib/libpcre2-8.a(pcre2_jit_compile.c.o)
 .debug_abbrev  0x0000000000005901      0x437 /yuneta/development/outputs_ext/lib/libpcre2-8.a(pcre2_match.c.o)
 .debug_abbrev  0x0000000000005d38      0x1ad /yuneta/development/outputs_ext/lib/libpcre2-8.a(pcre2_match_data.c.o)
 .debug_abbrev  0x0000000000005ee5       0xf5 /yuneta/development/outputs_ext/lib/libpcre2-8.a(pcre2_newline.c.o)
 .debug_abbrev  0x0000000000005fda       0xc0 /yuneta/development/outputs_ext/lib/libpcre2-8.a(pcre2_ord2utf.c.o)
 .debug_abbrev  0x000000000000609a      0x24e /yuneta/development/outputs_ext/lib/libpcre2-8.a(pcre2_script_run.c.o)
 .debug_abbrev  0x00000000000062e8       0xdb /yuneta/development/outputs_ext/lib/libpcre2-8.a(pcre2_string_utils.c.o)
 .debug_abbrev  0x00000000000063c3      0x3ea /yuneta/development/outputs_ext/lib/libpcre2-8.a(pcre2_study.c.o)
 .debug_abbrev  0x00000000000067ad      0x103 /yuneta/development/outputs_ext/lib/libpcre2-8.a(pcre2_tables.c.o)
 .debug_abbrev  0x00000000000068b0       0xdf /yuneta/development/outputs_ext/lib/libpcre2-8.a(pcre2_ucd.c.o)
 .debug_abbrev  0x000000000000698f       0xc9 /yuneta/development/outputs_ext/lib/libpcre2-8.a(pcre2_valid_utf.c.o)
 .debug_abbrev  0x0000000000006a58      0x1ca /yuneta/development/outputs_ext/lib/libpcre2-8.a(pcre2_xclass.c.o)
 .debug_abbrev  0x0000000000006c22      0x364 /yuneta/development/outputs_ext/lib/libpcre2-8.a(pcre2_auto_possess.c.o)
 .debug_abbrev  0x0000000000006f86       0x77 /yuneta/development/outputs_ext/lib/libpcre2-8.a(pcre2_chartables.c.o)
 .debug_abbrev  0x0000000000006ffd       0x92 /yuneta/development/outputs_ext/lib/libpcre2-8.a(pcre2_chkdint.c.o)
 .debug_abbrev  0x000000000000708f      0x141 /yuneta/development/outputs_ext/lib/libpcre2-8.a(pcre2_extuni.c.o)
 .debug_abbrev  0x00000000000071d0      0x173 /yuneta/development/outputs_ext/lib/libbacktrace.a(state.o)
 .debug_abbrev  0x0000000000007343      0x1ac /yuneta/development/outputs_ext/lib/libbacktrace.a(backtrace.o)
 .debug_abbrev  0x00000000000074ef      0x37c /yuneta/development/outputs_ext/lib/libbacktrace.a(mmap.o)
 .debug_abbrev  0x000000000000786b      0x2fc /yuneta/development/outputs_ext/lib/libbacktrace.a(fileline.o)
 .debug_abbrev  0x0000000000007b67      0x1a0 /yuneta/development/outputs_ext/lib/libbacktrace.a(posix.o)
 .debug_abbrev  0x0000000000007d07      0x5c7 /yuneta/development/outputs_ext/lib/libbacktrace.a(elf.o)
 .debug_abbrev  0x00000000000082ce      0x1c7 /yuneta/development/outputs_ext/lib/libbacktrace.a(mmapio.o)
 .debug_abbrev  0x0000000000008495      0x5bd /yuneta/development/outputs_ext/lib/libbacktrace.a(dwarf.o)
 .debug_abbrev  0x0000000000008a52      0x176 /yuneta/development/outputs_ext/lib/libbacktrace.a(sort.o)

.debug_line     0x0000000000000000    0x958fe
 *(.debug_line .debug_line.* .debug_line_end)
 .debug_line    0x0000000000000000      0x1b0 CMakeFiles/fs_watcher.dir/src/main_fs_watcher.c.o
 .debug_line    0x00000000000001b0     0x16e1 /yuneta/development/outputs_ext/lib/liburing.a(setup.ol)
 .debug_line    0x0000000000001891     0x181b /yuneta/development/outputs_ext/lib/liburing.a(queue.ol)
 .debug_line    0x00000000000030ac     0x13d4 /yuneta/development/outputs_ext/lib/liburing.a(register.ol)
 .debug_line    0x0000000000004480      0x163 /yuneta/development/outputs_ext/lib/liburing.a(nolibc.ol)
 .debug_line    0x00000000000045e3      0xde3 /yuneta/development/outputs_ext/lib/libjansson.a(dump.c.o)
 .debug_line    0x00000000000053c6      0xfb1 /yuneta/development/outputs_ext/lib/libjansson.a(hashtable.c.o)
 .debug_line    0x0000000000006377      0x23b /yuneta/development/outputs_ext/lib/libjansson.a(hashtable_seed.c.o)
 .debug_line    0x00000000000065b2     0x2055 /yuneta/development/outputs_ext/lib/libjansson.a(load.c.o)
 .debug_line    0x0000000000008607      0x181 /yuneta/development/outputs_ext/lib/libjansson.a(memory.c.o)
 .debug_line    0x0000000000008788     0x189b /yuneta/development/outputs_ext/lib/libjansson.a(pack_unpack.c.o)
 .debug_line    0x000000000000a023      0x265 /yuneta/development/outputs_ext/lib/libjansson.a(strbuffer.c.o)
 .debug_line    0x000000000000a288      0x5bb /yuneta/development/outputs_ext/lib/libjansson.a(strconv.c.o)
 .debug_line    0x000000000000a843      0x395 /yuneta/development/outputs_ext/lib/libjansson.a(utf.c.o)
 .debug_line    0x000000000000abd8     0x226a /yuneta/development/outputs_ext/lib/libjansson.a(value.c.o)
 .debug_line    0x000000000000ce42     0x717c /yuneta/development/outputs_ext/lib/libjansson.a(dtoa.c.o)
 .debug_line    0x0000000000013fbe      0x26d /yuneta/development/outputs_ext/lib/libjansson.a(error.c.o)
 .debug_line    0x000000000001422b     0xc7de /yuneta/development/outputs_ext/lib/libpcre2-8.a(pcre2_compile.c.o)
 .debug_line    0x0000000000020a09     0x5419 /yuneta/development/outputs_ext/lib/libpcre2-8.a(pcre2_compile_class.c.o)
 .debug_line    0x0000000000025e22      0x677 /yuneta/development/outputs_ext/lib/libpcre2-8.a(pcre2_context.c.o)
 .debug_line    0x0000000000026499      0x2c3 /yuneta/development/outputs_ext/lib/libpcre2-8.a(pcre2_find_bracket.c.o)
 .debug_line    0x000000000002675c    0x4634c /yuneta/development/outputs_ext/lib/libpcre2-8.a(pcre2_jit_compile.c.o)
 .debug_line    0x000000000006caa8     0xeb70 /yuneta/development/outputs_ext/lib/libpcre2-8.a(pcre2_match.c.o)
 .debug_line    0x000000000007b618      0x187 /yuneta/development/outputs_ext/lib/libpcre2-8.a(pcre2_match_data.c.o)
 .debug_line    0x000000000007b79f      0x41c /yuneta/development/outputs_ext/lib/libpcre2-8.a(pcre2_newline.c.o)
 .debug_line    0x000000000007bbbb      0x116 /yuneta/development/outputs_ext/lib/libpcre2-8.a(pcre2_ord2utf.c.o)
 .debug_line    0x000000000007bcd1      0x6c9 /yuneta/development/outputs_ext/lib/libpcre2-8.a(pcre2_script_run.c.o)
 .debug_line    0x000000000007c39a      0x242 /yuneta/development/outputs_ext/lib/libpcre2-8.a(pcre2_string_utils.c.o)
 .debug_line    0x000000000007c5dc     0x2334 /yuneta/development/outputs_ext/lib/libpcre2-8.a(pcre2_study.c.o)
 .debug_line    0x000000000007e910       0x60 /yuneta/development/outputs_ext/lib/libpcre2-8.a(pcre2_tables.c.o)
 .debug_line    0x000000000007e970       0x52 /yuneta/development/outputs_ext/lib/libpcre2-8.a(pcre2_ucd.c.o)
 .debug_line    0x000000000007e9c2      0x3fd /yuneta/development/outputs_ext/lib/libpcre2-8.a(pcre2_valid_utf.c.o)
 .debug_line    0x000000000007edbf      0xaf8 /yuneta/development/outputs_ext/lib/libpcre2-8.a(pcre2_xclass.c.o)
 .debug_line    0x000000000007f8b7     0x191d /yuneta/development/outputs_ext/lib/libpcre2-8.a(pcre2_auto_possess.c.o)
 .debug_line    0x00000000000811d4       0x51 /yuneta/development/outputs_ext/lib/libpcre2-8.a(pcre2_chartables.c.o)
 .debug_line    0x0000000000081225       0x8a /yuneta/development/outputs_ext/lib/libpcre2-8.a(pcre2_chkdint.c.o)
 .debug_line    0x00000000000812af      0x3e7 /yuneta/development/outputs_ext/lib/libpcre2-8.a(pcre2_extuni.c.o)
 .debug_line    0x0000000000081696       0xcd /yuneta/development/outputs_ext/lib/libbacktrace.a(state.o)
 .debug_line    0x0000000000081763      0x161 /yuneta/development/outputs_ext/lib/libbacktrace.a(backtrace.o)
 .debug_line    0x00000000000818c4      0x6e5 /yuneta/development/outputs_ext/lib/libbacktrace.a(mmap.o)
 .debug_line    0x0000000000081fa9      0x2fe /yuneta/development/outputs_ext/lib/libbacktrace.a(fileline.o)
 .debug_line    0x00000000000822a7      0x163 /yuneta/development/outputs_ext/lib/libbacktrace.a(posix.o)
 .debug_line    0x000000000008240a     0xae1e /yuneta/development/outputs_ext/lib/libbacktrace.a(elf.o)
 .debug_line    0x000000000008d228      0x183 /yuneta/development/outputs_ext/lib/libbacktrace.a(mmapio.o)
 .debug_line    0x000000000008d3ab     0x7ce0 /yuneta/development/outputs_ext/lib/libbacktrace.a(dwarf.o)
 .debug_line    0x000000000009508b      0x873 /yuneta/development/outputs_ext/lib/libbacktrace.a(sort.o)

.debug_frame
 *(.debug_frame)

.debug_str      0x0000000000000000    0x113fa
 *(.debug_str)
 .debug_str     0x0000000000000000    0x113fa CMakeFiles/fs_watcher.dir/src/main_fs_watcher.c.o
                                        0xbee (size before relaxing)
 .debug_str     0x00000000000113fa      0xac1 /yuneta/development/outputs_ext/lib/liburing.a(setup.ol)
 .debug_str     0x00000000000113fa      0xf9f /yuneta/development/outputs_ext/lib/liburing.a(queue.ol)
 .debug_str     0x00000000000113fa     0x13e8 /yuneta/development/outputs_ext/lib/liburing.a(register.ol)
 .debug_str     0x00000000000113fa      0x224 /yuneta/development/outputs_ext/lib/liburing.a(nolibc.ol)
 .debug_str     0x00000000000113fa      0x81b /yuneta/development/outputs_ext/lib/libjansson.a(dump.c.o)
 .debug_str     0x00000000000113fa      0x4eb /yuneta/development/outputs_ext/lib/libjansson.a(hashtable.c.o)
 .debug_str     0x00000000000113fa      0x2f1 /yuneta/development/outputs_ext/lib/libjansson.a(hashtable_seed.c.o)
 .debug_str     0x00000000000113fa      0xbce /yuneta/development/outputs_ext/lib/libjansson.a(load.c.o)
 .debug_str     0x00000000000113fa      0x221 /yuneta/development/outputs_ext/lib/libjansson.a(memory.c.o)
 .debug_str     0x00000000000113fa      0xa14 /yuneta/development/outputs_ext/lib/libjansson.a(pack_unpack.c.o)
 .debug_str     0x00000000000113fa      0x258 /yuneta/development/outputs_ext/lib/libjansson.a(strbuffer.c.o)
 .debug_str     0x00000000000113fa      0x2c2 /yuneta/development/outputs_ext/lib/libjansson.a(strconv.c.o)
 .debug_str     0x00000000000113fa      0x1c9 /yuneta/development/outputs_ext/lib/libjansson.a(utf.c.o)
 .debug_str     0x00000000000113fa      0xca6 /yuneta/development/outputs_ext/lib/libjansson.a(value.c.o)
 .debug_str     0x00000000000113fa      0x668 /yuneta/development/outputs_ext/lib/libjansson.a(dtoa.c.o)
 .debug_str     0x00000000000113fa      0x4ac /yuneta/development/outputs_ext/lib/libjansson.a(error.c.o)
 .debug_str     0x00000000000113fa     0x28e5 /yuneta/development/outputs_ext/lib/libpcre2-8.a(pcre2_compile.c.o)
 .debug_str     0x00000000000113fa     0x18df /yuneta/development/outputs_ext/lib/libpcre2-8.a(pcre2_compile_class.c.o)
 .debug_str     0x00000000000113fa      0xb7f /yuneta/development/outputs_ext/lib/libpcre2-8.a(pcre2_context.c.o)
 .debug_str     0x00000000000113fa      0x9a7 /yuneta/development/outputs_ext/lib/libpcre2-8.a(pcre2_find_bracket.c.o)
 .debug_str     0x00000000000113fa     0x57bf /yuneta/development/outputs_ext/lib/libpcre2-8.a(pcre2_jit_compile.c.o)
 .debug_str     0x00000000000113fa     0x1c14 /yuneta/development/outputs_ext/lib/libpcre2-8.a(pcre2_match.c.o)
 .debug_str     0x00000000000113fa      0x5e8 /yuneta/development/outputs_ext/lib/libpcre2-8.a(pcre2_match_data.c.o)
 .debug_str     0x00000000000113fa      0x1d1 /yuneta/development/outputs_ext/lib/libpcre2-8.a(pcre2_newline.c.o)
 .debug_str     0x00000000000113fa      0x1d8 /yuneta/development/outputs_ext/lib/libpcre2-8.a(pcre2_ord2utf.c.o)
 .debug_str     0x00000000000113fa      0xd4b /yuneta/development/outputs_ext/lib/libpcre2-8.a(pcre2_script_run.c.o)
 .debug_str     0x00000000000113fa      0x207 /yuneta/development/outputs_ext/lib/libpcre2-8.a(pcre2_string_utils.c.o)
 .debug_str     0x00000000000113fa      0xee5 /yuneta/development/outputs_ext/lib/libpcre2-8.a(pcre2_study.c.o)
 .debug_str     0x00000000000113fa     0x134a /yuneta/development/outputs_ext/lib/libpcre2-8.a(pcre2_tables.c.o)
 .debug_str     0x00000000000113fa      0x300 /yuneta/development/outputs_ext/lib/libpcre2-8.a(pcre2_ucd.c.o)
 .debug_str     0x00000000000113fa      0x1ce /yuneta/development/outputs_ext/lib/libpcre2-8.a(pcre2_valid_utf.c.o)
 .debug_str     0x00000000000113fa      0x435 /yuneta/development/outputs_ext/lib/libpcre2-8.a(pcre2_xclass.c.o)
 .debug_str     0x00000000000113fa     0x10ee /yuneta/development/outputs_ext/lib/libpcre2-8.a(pcre2_auto_possess.c.o)
 .debug_str     0x00000000000113fa      0x172 /yuneta/development/outputs_ext/lib/libpcre2-8.a(pcre2_chartables.c.o)
 .debug_str     0x00000000000113fa      0x164 /yuneta/development/outputs_ext/lib/libpcre2-8.a(pcre2_chkdint.c.o)
 .debug_str     0x00000000000113fa      0x363 /yuneta/development/outputs_ext/lib/libpcre2-8.a(pcre2_extuni.c.o)
 .debug_str     0x00000000000113fa      0x2d8 /yuneta/development/outputs_ext/lib/libbacktrace.a(state.o)
 .debug_str     0x00000000000113fa      0x443 /yuneta/development/outputs_ext/lib/libbacktrace.a(backtrace.o)
 .debug_str     0x00000000000113fa      0x3a5 /yuneta/development/outputs_ext/lib/libbacktrace.a(mmap.o)
 .debug_str     0x00000000000113fa      0x447 /yuneta/development/outputs_ext/lib/libbacktrace.a(fileline.o)
 .debug_str     0x00000000000113fa      0x248 /yuneta/development/outputs_ext/lib/libbacktrace.a(posix.o)
 .debug_str     0x00000000000113fa     0x1dee /yuneta/development/outputs_ext/lib/libbacktrace.a(elf.o)
 .debug_str     0x00000000000113fa      0x345 /yuneta/development/outputs_ext/lib/libbacktrace.a(mmapio.o)
 .debug_str     0x00000000000113fa     0x28a8 /yuneta/development/outputs_ext/lib/libbacktrace.a(dwarf.o)
 .debug_str     0x00000000000113fa      0x195 /yuneta/development/outputs_ext/lib/libbacktrace.a(sort.o)

.debug_loc
 *(.debug_loc)

.debug_macinfo
 *(.debug_macinfo)

.debug_weaknames
 *(.debug_weaknames)

.debug_funcnames
 *(.debug_funcnames)

.debug_typenames
 *(.debug_typenames)

.debug_varnames
 *(.debug_varnames)

.debug_pubtypes
 *(.debug_pubtypes)

.debug_ranges
 *(.debug_ranges)

.debug_addr
 *(.debug_addr)

.debug_line_str
                0x0000000000000000     0x13ea
 *(.debug_line_str)
 .debug_line_str
                0x0000000000000000     0x13ea CMakeFiles/fs_watcher.dir/src/main_fs_watcher.c.o
                                        0x26f (size before relaxing)
 .debug_line_str
                0x00000000000013ea      0x201 /yuneta/development/outputs_ext/lib/liburing.a(setup.ol)
 .debug_line_str
                0x00000000000013ea      0x22b /yuneta/development/outputs_ext/lib/liburing.a(queue.ol)
 .debug_line_str
                0x00000000000013ea      0x242 /yuneta/development/outputs_ext/lib/liburing.a(register.ol)
 .debug_line_str
                0x00000000000013ea      0x178 /yuneta/development/outputs_ext/lib/liburing.a(nolibc.ol)
 .debug_line_str
                0x00000000000013ea      0x26b /yuneta/development/outputs_ext/lib/libjansson.a(dump.c.o)
 .debug_line_str
                0x00000000000013ea      0x212 /yuneta/development/outputs_ext/lib/libjansson.a(hashtable.c.o)
 .debug_line_str
                0x00000000000013ea      0x264 /yuneta/development/outputs_ext/lib/libjansson.a(hashtable_seed.c.o)
 .debug_line_str
                0x00000000000013ea      0x28d /yuneta/development/outputs_ext/lib/libjansson.a(load.c.o)
 .debug_line_str
                0x00000000000013ea      0x1d3 /yuneta/development/outputs_ext/lib/libjansson.a(memory.c.o)
 .debug_line_str
                0x00000000000013ea      0x212 /yuneta/development/outputs_ext/lib/libjansson.a(pack_unpack.c.o)
 .debug_line_str
                0x00000000000013ea      0x1d1 /yuneta/development/outputs_ext/lib/libjansson.a(strbuffer.c.o)
 .debug_line_str
                0x00000000000013ea      0x1e9 /yuneta/development/outputs_ext/lib/libjansson.a(strconv.c.o)
 .debug_line_str
                0x00000000000013ea      0x199 /yuneta/development/outputs_ext/lib/libjansson.a(utf.c.o)
 .debug_line_str
                0x00000000000013ea      0x214 /yuneta/development/outputs_ext/lib/libjansson.a(value.c.o)
 .debug_line_str
                0x00000000000013ea      0x1cb /yuneta/development/outputs_ext/lib/libjansson.a(dtoa.c.o)
 .debug_line_str
                0x00000000000013ea      0x1d9 /yuneta/development/outputs_ext/lib/libjansson.a(error.c.o)
 .debug_line_str
                0x00000000000013ea      0x23a /yuneta/development/outputs_ext/lib/libpcre2-8.a(pcre2_compile.c.o)
 .debug_line_str
                0x00000000000013ea      0x236 /yuneta/development/outputs_ext/lib/libpcre2-8.a(pcre2_compile_class.c.o)
 .debug_line_str
                0x00000000000013ea      0x20d /yuneta/development/outputs_ext/lib/libpcre2-8.a(pcre2_context.c.o)
 .debug_line_str
                0x00000000000013ea      0x1a6 /yuneta/development/outputs_ext/lib/libpcre2-8.a(pcre2_find_bracket.c.o)
 .debug_line_str
                0x00000000000013ea      0x468 /yuneta/development/outputs_ext/lib/libpcre2-8.a(pcre2_jit_compile.c.o)
 .debug_line_str
                0x00000000000013ea      0x224 /yuneta/development/outputs_ext/lib/libpcre2-8.a(pcre2_match.c.o)
 .debug_line_str
                0x00000000000013ea      0x1e5 /yuneta/development/outputs_ext/lib/libpcre2-8.a(pcre2_match_data.c.o)
 .debug_line_str
                0x00000000000013ea      0x197 /yuneta/development/outputs_ext/lib/libpcre2-8.a(pcre2_newline.c.o)
 .debug_line_str
                0x00000000000013ea      0x197 /yuneta/development/outputs_ext/lib/libpcre2-8.a(pcre2_ord2utf.c.o)
 .debug_line_str
                0x00000000000013ea      0x1ff /yuneta/development/outputs_ext/lib/libpcre2-8.a(pcre2_script_run.c.o)
 .debug_line_str
                0x00000000000013ea      0x1d2 /yuneta/development/outputs_ext/lib/libpcre2-8.a(pcre2_string_utils.c.o)
 .debug_line_str
                0x00000000000013ea      0x202 /yuneta/development/outputs_ext/lib/libpcre2-8.a(pcre2_study.c.o)
 .debug_line_str
                0x00000000000013ea      0x1dc /yuneta/development/outputs_ext/lib/libpcre2-8.a(pcre2_tables.c.o)
 .debug_line_str
                0x00000000000013ea      0x191 /yuneta/development/outputs_ext/lib/libpcre2-8.a(pcre2_ucd.c.o)
 .debug_line_str
                0x00000000000013ea      0x1cf /yuneta/development/outputs_ext/lib/libpcre2-8.a(pcre2_valid_utf.c.o)
 .debug_line_str
                0x00000000000013ea      0x1ae /yuneta/development/outputs_ext/lib/libpcre2-8.a(pcre2_xclass.c.o)
 .debug_line_str
                0x00000000000013ea      0x205 /yuneta/development/outputs_ext/lib/libpcre2-8.a(pcre2_auto_possess.c.o)
 .debug_line_str
                0x00000000000013ea      0x1e0 /yuneta/development/outputs_ext/lib/libpcre2-8.a(pcre2_chartables.c.o)
 .debug_line_str
                0x00000000000013ea      0x187 /yuneta/development/outputs_ext/lib/libpcre2-8.a(pcre2_chkdint.c.o)
 .debug_line_str
                0x00000000000013ea      0x1ae /yuneta/development/outputs_ext/lib/libpcre2-8.a(pcre2_extuni.c.o)
 .debug_line_str
                0x00000000000013ea      0x13b /yuneta/development/outputs_ext/lib/libbacktrace.a(state.o)
 .debug_line_str
                0x00000000000013ea      0x11a /yuneta/development/outputs_ext/lib/libbacktrace.a(backtrace.o)
 .debug_line_str
                0x00000000000013ea      0x185 /yuneta/development/outputs_ext/lib/libbacktrace.a(mmap.o)
 .debug_line_str
                0x00000000000013ea      0x15f /yuneta/development/outputs_ext/lib/libbacktrace.a(fileline.o)
 .debug_line_str
                0x00000000000013ea      0x104 /yuneta/development/outputs_ext/lib/libbacktrace.a(posix.o)
 .debug_line_str
                0x00000000000013ea      0x22e /yuneta/development/outputs_ext/lib/libbacktrace.a(elf.o)
 .debug_line_str
                0x00000000000013ea      0x184 /yuneta/development/outputs_ext/lib/libbacktrace.a(mmapio.o)
 .debug_line_str
                0x00000000000013ea      0x1c1 /yuneta/development/outputs_ext/lib/libbacktrace.a(dwarf.o)
 .debug_line_str
                0x00000000000013ea       0xd5 /yuneta/development/outputs_ext/lib/libbacktrace.a(sort.o)

.debug_loclists
                0x0000000000000000    0xd3079
 *(.debug_loclists)
 .debug_loclists
                0x0000000000000000     0x2405 /yuneta/development/outputs_ext/lib/liburing.a(setup.ol)
 .debug_loclists
                0x0000000000002405     0x2c41 /yuneta/development/outputs_ext/lib/liburing.a(queue.ol)
 .debug_loclists
                0x0000000000005046     0x3367 /yuneta/development/outputs_ext/lib/liburing.a(register.ol)
 .debug_loclists
                0x00000000000083ad      0x11b /yuneta/development/outputs_ext/lib/liburing.a(nolibc.ol)
 .debug_loclists
                0x00000000000084c8     0x1bc7 /yuneta/development/outputs_ext/lib/libjansson.a(dump.c.o)
 .debug_loclists
                0x000000000000a08f     0x13d1 /yuneta/development/outputs_ext/lib/libjansson.a(hashtable.c.o)
 .debug_loclists
                0x000000000000b460      0x228 /yuneta/development/outputs_ext/lib/libjansson.a(hashtable_seed.c.o)
 .debug_loclists
                0x000000000000b688     0x242d /yuneta/development/outputs_ext/lib/libjansson.a(load.c.o)
 .debug_loclists
                0x000000000000dab5       0xba /yuneta/development/outputs_ext/lib/libjansson.a(memory.c.o)
 .debug_loclists
                0x000000000000db6f     0x18ad /yuneta/development/outputs_ext/lib/libjansson.a(pack_unpack.c.o)
 .debug_loclists
                0x000000000000f41c      0x189 /yuneta/development/outputs_ext/lib/libjansson.a(strbuffer.c.o)
 .debug_loclists
                0x000000000000f5a5      0x522 /yuneta/development/outputs_ext/lib/libjansson.a(strconv.c.o)
 .debug_loclists
                0x000000000000fac7      0x3a4 /yuneta/development/outputs_ext/lib/libjansson.a(utf.c.o)
 .debug_loclists
                0x000000000000fe6b     0x2e77 /yuneta/development/outputs_ext/lib/libjansson.a(value.c.o)
 .debug_loclists
                0x0000000000012ce2     0xfbd8 /yuneta/development/outputs_ext/lib/libjansson.a(dtoa.c.o)
 .debug_loclists
                0x00000000000228ba      0x40f /yuneta/development/outputs_ext/lib/libjansson.a(error.c.o)
 .debug_loclists
                0x0000000000022cc9    0x13921 /yuneta/development/outputs_ext/lib/libpcre2-8.a(pcre2_compile.c.o)
 .debug_loclists
                0x00000000000365ea     0x6738 /yuneta/development/outputs_ext/lib/libpcre2-8.a(pcre2_compile_class.c.o)
 .debug_loclists
                0x000000000003cd22      0x5a9 /yuneta/development/outputs_ext/lib/libpcre2-8.a(pcre2_context.c.o)
 .debug_loclists
                0x000000000003d2cb      0x218 /yuneta/development/outputs_ext/lib/libpcre2-8.a(pcre2_find_bracket.c.o)
 .debug_loclists
                0x000000000003d4e3    0x5c59a /yuneta/development/outputs_ext/lib/libpcre2-8.a(pcre2_jit_compile.c.o)
 .debug_loclists
                0x0000000000099a7d    0x10d04 /yuneta/development/outputs_ext/lib/libpcre2-8.a(pcre2_match.c.o)
 .debug_loclists
                0x00000000000aa781       0xdf /yuneta/development/outputs_ext/lib/libpcre2-8.a(pcre2_match_data.c.o)
 .debug_loclists
                0x00000000000aa860      0x2de /yuneta/development/outputs_ext/lib/libpcre2-8.a(pcre2_newline.c.o)
 .debug_loclists
                0x00000000000aab3e       0xb0 /yuneta/development/outputs_ext/lib/libpcre2-8.a(pcre2_ord2utf.c.o)
 .debug_loclists
                0x00000000000aabee      0x9bb /yuneta/development/outputs_ext/lib/libpcre2-8.a(pcre2_script_run.c.o)
 .debug_loclists
                0x00000000000ab5a9      0x331 /yuneta/development/outputs_ext/lib/libpcre2-8.a(pcre2_string_utils.c.o)
 .debug_loclists
                0x00000000000ab8da     0x2728 /yuneta/development/outputs_ext/lib/libpcre2-8.a(pcre2_study.c.o)
 .debug_loclists
                0x00000000000ae002      0x48f /yuneta/development/outputs_ext/lib/libpcre2-8.a(pcre2_valid_utf.c.o)
 .debug_loclists
                0x00000000000ae491      0xbc7 /yuneta/development/outputs_ext/lib/libpcre2-8.a(pcre2_xclass.c.o)
 .debug_loclists
                0x00000000000af058     0x195a /yuneta/development/outputs_ext/lib/libpcre2-8.a(pcre2_auto_possess.c.o)
 .debug_loclists
                0x00000000000b09b2       0x1e /yuneta/development/outputs_ext/lib/libpcre2-8.a(pcre2_chkdint.c.o)
 .debug_loclists
                0x00000000000b09d0      0x41c /yuneta/development/outputs_ext/lib/libpcre2-8.a(pcre2_extuni.c.o)
 .debug_loclists
                0x00000000000b0dec       0x71 /yuneta/development/outputs_ext/lib/libbacktrace.a(state.o)
 .debug_loclists
                0x00000000000b0e5d      0x13a /yuneta/development/outputs_ext/lib/libbacktrace.a(backtrace.o)
 .debug_loclists
                0x00000000000b0f97      0x9ba /yuneta/development/outputs_ext/lib/libbacktrace.a(mmap.o)
 .debug_loclists
                0x00000000000b1951      0x476 /yuneta/development/outputs_ext/lib/libbacktrace.a(fileline.o)
 .debug_loclists
                0x00000000000b1dc7      0x197 /yuneta/development/outputs_ext/lib/libbacktrace.a(posix.o)
 .debug_loclists
                0x00000000000b1f5e    0x1488c /yuneta/development/outputs_ext/lib/libbacktrace.a(elf.o)
 .debug_loclists
                0x00000000000c67ea      0x246 /yuneta/development/outputs_ext/lib/libbacktrace.a(mmapio.o)
 .debug_loclists
                0x00000000000c6a30     0xbe7f /yuneta/development/outputs_ext/lib/libbacktrace.a(dwarf.o)
 .debug_loclists
                0x00000000000d28af      0x7ca /yuneta/development/outputs_ext/lib/libbacktrace.a(sort.o)

.debug_macro
 *(.debug_macro)

.debug_names
 *(.debug_names)

.debug_rnglists
                0x0000000000000000    0x1405e
 *(.debug_rnglists)
 .debug_rnglists
                0x0000000000000000      0x4b5 /yuneta/development/outputs_ext/lib/liburing.a(setup.ol)
 .debug_rnglists
                0x00000000000004b5      0x509 /yuneta/development/outputs_ext/lib/liburing.a(queue.ol)
 .debug_rnglists
                0x00000000000009be      0x24a /yuneta/development/outputs_ext/lib/liburing.a(register.ol)
 .debug_rnglists
                0x0000000000000c08       0x29 /yuneta/development/outputs_ext/lib/liburing.a(nolibc.ol)
 .debug_rnglists
                0x0000000000000c31      0x24b /yuneta/development/outputs_ext/lib/libjansson.a(dump.c.o)
 .debug_rnglists
                0x0000000000000e7c      0x197 /yuneta/development/outputs_ext/lib/libjansson.a(hashtable.c.o)
 .debug_rnglists
                0x0000000000001013       0x17 /yuneta/development/outputs_ext/lib/libjansson.a(hashtable_seed.c.o)
 .debug_rnglists
                0x000000000000102a      0x4f5 /yuneta/development/outputs_ext/lib/libjansson.a(load.c.o)
 .debug_rnglists
                0x000000000000151f       0x13 /yuneta/development/outputs_ext/lib/libjansson.a(memory.c.o)
 .debug_rnglists
                0x0000000000001532      0x35a /yuneta/development/outputs_ext/lib/libjansson.a(pack_unpack.c.o)
 .debug_rnglists
                0x000000000000188c       0x27 /yuneta/development/outputs_ext/lib/libjansson.a(strbuffer.c.o)
 .debug_rnglists
                0x00000000000018b3       0xa9 /yuneta/development/outputs_ext/lib/libjansson.a(strconv.c.o)
 .debug_rnglists
                0x000000000000195c       0x1c /yuneta/development/outputs_ext/lib/libjansson.a(utf.c.o)
 .debug_rnglists
                0x0000000000001978      0x44f /yuneta/development/outputs_ext/lib/libjansson.a(value.c.o)
 .debug_rnglists
                0x0000000000001dc7      0x923 /yuneta/development/outputs_ext/lib/libjansson.a(dtoa.c.o)
 .debug_rnglists
                0x00000000000026ea       0x54 /yuneta/development/outputs_ext/lib/libjansson.a(error.c.o)
 .debug_rnglists
                0x000000000000273e     0x159a /yuneta/development/outputs_ext/lib/libpcre2-8.a(pcre2_compile.c.o)
 .debug_rnglists
                0x0000000000003cd8      0x81b /yuneta/development/outputs_ext/lib/libpcre2-8.a(pcre2_compile_class.c.o)
 .debug_rnglists
                0x00000000000044f3       0x3c /yuneta/development/outputs_ext/lib/libpcre2-8.a(pcre2_context.c.o)
 .debug_rnglists
                0x000000000000452f       0x2b /yuneta/development/outputs_ext/lib/libpcre2-8.a(pcre2_find_bracket.c.o)
 .debug_rnglists
                0x000000000000455a     0xa566 /yuneta/development/outputs_ext/lib/libpcre2-8.a(pcre2_jit_compile.c.o)
 .debug_rnglists
                0x000000000000eac0     0x1302 /yuneta/development/outputs_ext/lib/libpcre2-8.a(pcre2_match.c.o)
 .debug_rnglists
                0x000000000000fdc2       0xb9 /yuneta/development/outputs_ext/lib/libpcre2-8.a(pcre2_script_run.c.o)
 .debug_rnglists
                0x000000000000fe7b      0x252 /yuneta/development/outputs_ext/lib/libpcre2-8.a(pcre2_study.c.o)
 .debug_rnglists
                0x00000000000100cd       0x3c /yuneta/development/outputs_ext/lib/libpcre2-8.a(pcre2_valid_utf.c.o)
 .debug_rnglists
                0x0000000000010109       0xb0 /yuneta/development/outputs_ext/lib/libpcre2-8.a(pcre2_xclass.c.o)
 .debug_rnglists
                0x00000000000101b9      0x19b /yuneta/development/outputs_ext/lib/libpcre2-8.a(pcre2_auto_possess.c.o)
 .debug_rnglists
                0x0000000000010354       0x3d /yuneta/development/outputs_ext/lib/libpcre2-8.a(pcre2_extuni.c.o)
 .debug_rnglists
                0x0000000000010391       0x16 /yuneta/development/outputs_ext/lib/libbacktrace.a(state.o)
 .debug_rnglists
                0x00000000000103a7       0x94 /yuneta/development/outputs_ext/lib/libbacktrace.a(mmap.o)
 .debug_rnglists
                0x000000000001043b       0x21 /yuneta/development/outputs_ext/lib/libbacktrace.a(fileline.o)
 .debug_rnglists
                0x000000000001045c       0x16 /yuneta/development/outputs_ext/lib/libbacktrace.a(posix.o)
 .debug_rnglists
                0x0000000000010472     0x1925 /yuneta/development/outputs_ext/lib/libbacktrace.a(elf.o)
 .debug_rnglists
                0x0000000000011d97     0x21d0 /yuneta/development/outputs_ext/lib/libbacktrace.a(dwarf.o)
 .debug_rnglists
                0x0000000000013f67       0xf7 /yuneta/development/outputs_ext/lib/libbacktrace.a(sort.o)

.debug_str_offsets
 *(.debug_str_offsets)

.debug_sup
 *(.debug_sup)

.gnu.attributes
 *(.gnu.attributes)

/DISCARD/
 *(.note.GNU-stack)
 *(.gnu_debuglink)
 *(.gnu.lto_*)
OUTPUT(fs_watcher elf64-x86-64)
